(dp1
S'output'
p2
S"<type 'exceptions.NameError'> name 'valores' is not defined"
p3
sS'layer'
p4
S'D:\\Desarrollo\\web2py_2.18.5_win\\applications\\Piezas\\views\\estadisticas/estadistica_general.html'
p5
sS'code'
p6
S'response.write(\'<!DOCTYPE html>\\r\\n<!--[if (gt IE 9)|!(IE)]><!-->\\r\\n<html class="no-js" lang="\', escape=False)\nresponse.write(\'es\')\nresponse.write(\'">\\r\\n<!--<![endif]-->\\r\\n\\r\\n<head>\\r\\n\\r\\n    <meta charset="utf-8">\\r\\n    <meta http-equiv="X-UA-Compatible" content="IE=edge\', escape=False)\nresponse.write(not request.is_local and \',chrome=1\' or \'\')\nresponse.write(\'">\\r\\n    <!-- Tell the browser to be responsive to screen width -->\\r\\n    <meta name="viewport" content="width=device-width, initial-scale=1">\\r\\n\\r\\n\\r\\n    <!-- Favicon icon -->\\r\\n    <link rel="shortcut icon" href="\', escape=False)\nresponse.write(URL(\'static\',\'images/logo-final-solo.png\'))\nresponse.write(\'" type="image/x-icon">\\r\\n    <link rel="apple-touch-icon" href="\', escape=False)\nresponse.write(URL(\'static\',\'images/logo-final-solo.png\'))\nresponse.write(\'">\\r\\n\\r\\n    <title>\', escape=False)\nresponse.write(response.title or request.application)\nresponse.write(\'</title>\\r\\n\\r\\n    <meta name="application-name" content="\', escape=False)\nresponse.write(request.application)\nresponse.write(\'">\\r\\n    <!-- Speaking of Google, don\\\'t forget to set your site up:\\r\\n         http://google.com/webmasters -->\\r\\n    <meta name="google-site-verification" content="">\\r\\n\\r\\n    <!-- Bootstrap Core CSS -->\\r\\n    <!-- TODO: Arreglar importar-->\\r\\n    <link rel="stylesheet" href="\', escape=False)\nresponse.write(URL(\'static\',\'vendor/layout_ela/css/lib/bootstrap/bootstrap.min.css\'))\nresponse.write(\'"/>\\r\\n    <link rel="stylesheet" href="\', escape=False)\nresponse.write(URL(\'static\',\'vendor/layout_ela/css/lib/calendar2/semantic.ui.min.css\'))\nresponse.write(\'"/>\\r\\n    <link rel="stylesheet" href="\', escape=False)\nresponse.write(URL(\'static\',\'vendor/layout_ela/css/helper.css\'))\nresponse.write(\'"/>\\r\\n    <link rel="stylesheet" href="\', escape=False)\nresponse.write(URL(\'static\',\'vendor/layout_ela/css/style.css\'))\nresponse.write(\'"/>\\r\\n\\r\\n    <link rel="stylesheet" href="\', escape=False)\nresponse.write(URL(\'static\',\'vendor/font-awesome/css/font-awesome.min.css\'))\nresponse.write(\'"/>\\r\\n    <link rel="stylesheet" href="\', escape=False)\nresponse.write(URL(\'static\',\'css/web2py-bootstrap4.css\'))\nresponse.write(\'"/>\\r\\n    <link rel="stylesheet" href="\', escape=False)\nresponse.write(URL(\'static\',\'vendor/layout_ela/mi_estilo.css\'))\nresponse.write(\'"/>\\r\\n    <script src="\', escape=False)\nresponse.write(URL(\'static\',\'js/modernizr-2.8.3.min.js\'))\nresponse.write(\'"></script>\\r\\n\\r\\n    <link rel="stylesheet" href="\', escape=False)\nresponse.write(URL(\'static\',\'vendor/layout_ela/css/lib/toastr/toastr.min.css\'))\nresponse.write(\'"/>\\r\\n\\r\\n    <!--[if lt IE 9]>\\r\\n    <script src="https:**oss.maxcdn.com/libs/html5shiv/3.7.0/html5shiv.js"></script>\\r\\n    <script src="https:**oss.maxcdn.com/libs/respond.js/1.4.2/respond.min.js"></script>\\r\\n<![endif]-->\\r\\n\\r\\n\\r\\n\', escape=False)\nresponse.write(\'<script type="text/javascript"><!--\\n    // These variables are used by the web2py_ajax_init function in web2py_ajax.js (which is loaded below).\\n    \', escape=False)\nresponse.write(ASSIGNJS(\nw2p_ajax_confirm_message = T(\'Are you sure you want to delete this object?\'),\nw2p_ajax_disable_with_message = T(\'Working...\'),\nw2p_ajax_date_format = T(\'%Y-%m-%d\'),\nw2p_ajax_datetime_format = T(\'%Y-%m-%d %H:%M:%S\'),\najax_error_500 = T.M(\'An error occured, please [[reload %s]] the page\') % URL(args=request.args, vars=request.get_vars)\n))\nresponse.write(\'\\n    //--></script>\\n\', escape=False)\nresponse.files.insert(0,URL(\'static\',\'js/jquery.js\'))\nresponse.files.insert(1,URL(\'static\',\'css/calendar.css\'))\nresponse.files.insert(2,URL(\'static\',\'js/calendar.js\'))\nresponse.files.insert(3,URL(\'static\',\'js/web2py.js\'))\nresponse.include_meta()\nresponse.include_files()\nresponse.write(\'\\n\', escape=False)\nresponse.write(\'\\r\\n    <!-- this includes jquery.js, calendar.js/.css and web2py.js -->\\r\\n\', escape=False)\nresponse.write(\'\\r\\n\\r\\n</head>\\r\\n\\r\\n\\r\\n<body class="fix-header fix-sidebar">\\r\\n\\r\\n<!-- Preloader - style you can find in spinners.css -->\\r\\n<div class="preloader">\\r\\n    <svg class="circular" viewBox="25 25 50 50">\\r\\n        <circle class="path" cx="50" cy="50" r="20" fill="none" stroke-width="2" stroke-miterlimit="10"/>\\r\\n    </svg>\\r\\n</div>\\r\\n\\r\\n<!-- Main wrapper  -->\\r\\n<div id="main-wrapper">\\r\\n\\r\\n    <!-- header header  -->\\r\\n    <div class="header">\\r\\n\\r\\n\\r\\n        <nav class="navbar top-navbar navbar-expand-md navbar-light">\\r\\n\\r\\n            <!-- Logo -->\\r\\n            <div class="navbar-header">\\r\\n                <a class="navbar-brand" href="#">\\r\\n                    <!-- Logo icon -->\\r\\n                    <b style="margin-left: 20px;"><img src="\', escape=False)\nresponse.write(URL(\'static\',\'images/logo-final-solo.png\'))\nresponse.write(\'"\\r\\n                            class="dark-logo" style="width: 40px!important;"/></b>\\r\\n                    <!--End Logo icon -->\\r\\n                    <!-- Logo text -->\\r\\n                        <span class="text-light ml-2"><img src="\', escape=False)\nresponse.write(URL(\'static\',\'images/title.png\'))\nresponse.write(\'" alt="homepage"\\r\\n                            class="dark-logo" style="width: 200px!important;"/></span>\\r\\n                </a>\\r\\n            </div>\\r\\n            <!-- End Logo -->\\r\\n\\r\\n            <div class="navbar-collapse">\\r\\n                <!-- toggle and nav items -->\\r\\n                <ul class="navbar-nav mr-auto mt-md-0">\\r\\n                    <!-- This is  -->\\r\\n                    <li class="nav-item"><a class="nav-link nav-toggler hidden-md-up text-muted  "\\r\\n                                            href="javascript:void(0)"><i class="mdi mdi-menu"></i></a></li>\\r\\n                    <li class="nav-item m-l-10"><a class="nav-link sidebartoggler hidden-sm-down text-muted"\\r\\n                                                   style="visibility: collapse;" href="javascript:void(0)"><i\\r\\n                            class="ti-menu"></i></a></li>\\r\\n\\r\\n                </ul>\\r\\n\\r\\n                \', escape=False)\nif False:\n    response.write(\'\\r\\n                <!-- User profile and search -->\\r\\n                <ul class="navbar-nav my-lg-0">\\r\\n                    <!-- Comment -->\\r\\n\\r\\n                    <!-- End Comment -->\\r\\n\\r\\n                    <!-- Profile -->\\r\\n                    <li class="nav-item dropdown">\\r\\n                        <a class="nav-link dropdown-toggle text-muted  " href="#" data-toggle="dropdown"\\r\\n                           aria-haspopup="true" aria-expanded="false"><img\\r\\n                                src="\', escape=False)\n    response.write(URL(\'static\',\'vendor/layout_ela/images/users/avatar.png\'))\n    response.write(\'" alt="user"\\r\\n                                class="profile-pic"/></a>\\r\\n\\r\\n                        <div class="dropdown-menu dropdown-menu-right animated zoomIn">\\r\\n                            <ul class="dropdown-user">\\r\\n                                <!--li><a href="#"><i class="ti-user"></i> Profile</a></li>\\r\\n                            <li><a href="#"><i class="ti-wallet"></i> Balance</a></li>\\r\\n                            <li><a href="#"><i class="ti-email"></i> Inbox</a></li>\\r\\n                            <li><a href="#"><i class="ti-settings"></i> Setting</a></li-->\\r\\n                                <li><a href="\', escape=False)\n    response.write(URL(\'usuario\', \'detalles\', args=1))\n    response.write(\'"><i\\r\\n                                        class="ti-user"></i>\', escape=False)\n    response.write(" asd")\n    response.write(\'</a></li>\\r\\n                                <li><a href="\', escape=False)\n    response.write(URL(\'default\',\'user/logout\'))\n    response.write(\'"><i class="fa fa-power-off"></i>\\r\\n                                \', escape=False)\n    response.write(T("Cerrar sesi\xc3\xb3n"))\n    response.write(\'</a></li>\\r\\n                            </ul>\\r\\n                        </div>\\r\\n                    </li>\\r\\n\\r\\n                </ul>\\r\\n                \', escape=False)\n    pass\nresponse.write(\'\\r\\n            </div>\\r\\n        </nav>\\r\\n    </div>\\r\\n    <!-- End header header -->\\r\\n\\r\\n\\r\\n    <!-- Left Sidebar  Menu-->\\r\\n    <div class="left-sidebar">\\r\\n        <!-- Sidebar scroll-->\\r\\n        <div class="scroll-sidebar">\\r\\n            <!-- Sidebar navigation-->\\r\\n            <nav class="sidebar-nav">\\r\\n\\r\\n                <ul class="navbar-nav navbar-sidenav bg-navbar" id="exampleAccordion">\\r\\n\\r\\n                    <li class="nav-devider"></li>\\r\\n                    <li class="nav-label">\', escape=False)\nresponse.write(T("Men\xc3\xba"))\nresponse.write(\'</li>\\r\\n\\r\\n                \', escape=False)\nfor _item in response.menu or []:\n    response.write(\'\\r\\n                \', escape=False)\n    if len(_item)< 4 or not _item[3]:\n        response.write(\'\\r\\n                    <li class="nav-item" data-toggle="tooltip" data-placement="right">\\r\\n                        <a href="\', escape=False)\n        response.write(_item[2])\n        response.write(\'">\\r\\n                            <i class="fa \', escape=False)\n        response.write(icon.get(_item[0], " none "))\n        response.write(\'"></i>\\r\\n                            <span class="nav-link-text hide-menu"> \', escape=False)\n        response.write(_item[0])\n        response.write(\'</span>\\r\\n                        </a>\\r\\n                    </li>\\r\\n                \', escape=False)\n    else:\n        response.write(\'\\r\\n                    <li class="nav-item" data-toggle="tooltip" data-placement="right" title="\', escape=False)\n        response.write(_item[0])\n        response.write(\'">\\r\\n\\r\\n                        <a class="has-arrow" data-toggle="collapse" href="#\', escape=False)\n        response.write(_item[2])\n        response.write(\'"\\r\\n                           data-parent="#exampleAccordion">\\r\\n                            <i class="fa \', escape=False)\n        response.write(icon.get(_item[0], " none "))\n        response.write(\'"></i>\\r\\n                            <span class="nav-link-text hide-menu">\', escape=False)\n        response.write(_item[0])\n        response.write(\'</span>\\r\\n                        </a>\\r\\n\\r\\n\\r\\n                        <ul class="collapse" aria-expanded="false" id="\', escape=False)\n        response.write(_item[2])\n        response.write(\'">\\r\\n                            <li>\\r\\n                            \', escape=False)\n        for _subitem in _item[3]:\n            response.write(\'\\r\\n                                <a href="\', escape=False)\n            response.write(_subitem[2])\n            response.write(\'">\', escape=False)\n            response.write(_subitem[0])\n            response.write(\'</a> \', escape=False)\n            pass\n        response.write(\'\\r\\n                            </li>\\r\\n                        </ul>\\r\\n                    </li>\\r\\n                \', escape=False)\n        pass\n    response.write(\' \', escape=False)\n    pass\nresponse.write(\'\\r\\n                </ul>\\r\\n            </nav>\\r\\n            <!-- End Sidebar navigation -->\\r\\n        </div>\\r\\n        <!-- End Sidebar scroll-->\\r\\n    </div>\\r\\n    <!-- End Left Sidebar  -->\\r\\n\\r\\n    <!-- Page wrapper Content -->\\r\\n    <div class="page-wrapper">\\r\\n\\r\\n        <!-- <div class="w2p_flash alert alert-primary">\', escape=False)\nresponse.write(response.flash or \'\')\nresponse.write(\'</div> -->\\r\\n        <!-- Container fluid  -->\\r\\n        <div class="container-fluid">\\r\\n            <!-- Masthead ===================================== -->\\r\\n        \', escape=False)\nresponse.write(\'\\r\\n<link rel="stylesheet" href="\', escape=False)\nresponse.write(URL(\'static\',\'vendor/chart/styles.css\'))\nresponse.write(\'" />\\r\\n\\r\\n<style>\\r\\n  .detalles {\\r\\n    padding-bottom: 20px;\\r\\n  }\\r\\n\\r\\n  .proveedores {\\r\\n    padding: 0px 2px !important;\\r\\n  }\\r\\n\\r\\n  h3 {\\r\\n    margin-bottom: 3px !important;\\r\\n  }\\r\\n\\r\\n  form {\\r\\n    display: inline-flex !important;\\r\\n  }\\r\\n\\r\\n  /* input[type=submit]{\\r\\n    margin-left: 2px;\\r\\n} */\\r\\n</style>\\r\\n\', escape=False)\nresponse.write(\'\\r\\n            <!-- Start Page Content -->\\r\\n            <div class="row">\\r\\n                <div class="col-12">\\r\\n                \', escape=False)\nresponse.write(\' \', escape=False)\nresponse.write(\'\\r\\n\\r\\n<div class="card" id="container">\\r\\n  <h3>\', escape=False)\nresponse.write(T("Estad\xc3\xadstica general"))\nresponse.write(\'</h3>\\r\\n  <hr style="margin-top: 0%!important;" />\\r\\n  <div class="card-body">\\r\\n    <div class="row">\\r\\n      <div class="col-md-12">\\r\\n        <h3>Seleccionar a\\xc3\\xb1o</h3>\\r\\n        <br />\\r\\n        <div class="col-md-5">\\r\\n          \', escape=False)\nresponse.write(form)\nresponse.write(\'\\r\\n        </div>\\r\\n\\r\\n        <!--canvas id="canvas"></canvas-->\\r\\n\\r\\n        <div\\r\\n          id="chart"\\r\\n          style="min-width: 310px; height: 400px; margin: 0 auto"\\r\\n        ></div>\\r\\n      </div>\\r\\n    </div>\\r\\n  </div>\\r\\n</div>\\r\\n\', escape=False)\nresponse.write(\'\\r\\n\', escape=False)\nresponse.write(\' \', escape=False)\nresponse.write(response.toolbar() if response.show_toolbar else \'\')\nresponse.write(\'\\r\\n                </div>\\r\\n            </div>\\r\\n            <!-- End PAge Content -->\\r\\n        </div>\\r\\n        <!-- End Container fluid  -->\\r\\n\\r\\n\\r\\n        <!-- footer -->\\r\\n        <!--footer class="footer"> \\xc2\\xa9 2018 All rights reserved. Template designed by <a\\r\\n            href="https://colorlib.com">Colorlib</a></footer>\\r\\n    <!- End footer -->\\r\\n\\r\\n    \', escape=False)\nresponse.write(\'\\r\\n        <!-- this is default footer -->\\r\\n        <footer class="footer container-fluid">\\r\\n            <div class="copyright pull-left">\', escape=False)\nresponse.write(T(\'Copyright\'))\nresponse.write(\'\\r\\n                &#169; \', escape=False)\nresponse.write(request.now.year)\nresponse.write(\' \', escape=False)\nresponse.write(T(\'. Desarrollado en\'))\nresponse.write(\'\\r\\n                <a style="color: rgb(255, 240, 103);" href="http://www.web2py.com/">web2py</a>\\r\\n                \', escape=False)\nresponse.write(T(\' por SupremoCode.\'))\nresponse.write(\'\\r\\n            </div>\\r\\n                \\r\\n\\r\\n        </footer>\\r\\n    \', escape=False)\nresponse.write(\'\\r\\n    </div>\\r\\n    <!-- End Page wrapper  -->\\r\\n\\r\\n</div>\\r\\n<!-- End Wrapper -->\\r\\n\\r\\n<!-- All Jquery -->\\r\\n<script src="\', escape=False)\nresponse.write(URL(\'static\',\'vendor/layout_ela/js/lib/jquery/jquery.min.js\'))\nresponse.write(\'"></script>\\r\\n<!-- Bootstrap tether Core JavaScript -->\\r\\n<script src="\', escape=False)\nresponse.write(URL(\'static\',\'vendor/layout_ela/js/lib/bootstrap/js/popper.min.js\'))\nresponse.write(\'"></script>\\r\\n<script src="\', escape=False)\nresponse.write(URL(\'static\',\'vendor/layout_ela/js/lib/bootstrap/js/bootstrap.min.js\'))\nresponse.write(\'"></script>\\r\\n<!-- slimscrollbar scrollbar JavaScript -->\\r\\n<script src="\', escape=False)\nresponse.write(URL(\'static\',\'vendor/layout_ela/js/jquery.slimscroll.js\'))\nresponse.write(\'"></script>\\r\\n<!--Menu sidebar -->\\r\\n<script src="\', escape=False)\nresponse.write(URL(\'static\',\'vendor/layout_ela/js/sidebarmenu.js\'))\nresponse.write(\'"></script>\\r\\n<!--stickey kit -->\\r\\n<script src="\', escape=False)\nresponse.write(URL(\'static\',\'vendor/layout_ela/js/lib/sticky-kit-master/dist/sticky-kit.min.js\'))\nresponse.write(\'"></script>\\r\\n<!--Custom JavaScript -->\\r\\n<script src="\', escape=False)\nresponse.write(URL(\'static\',\'vendor/layout_ela/js/scripts.js\'))\nresponse.write(\'"></script>\\r\\n\\r\\n<!-- The javascript web 2 PY =============================== -->\\r\\n\\r\\n<script src="\', escape=False)\nresponse.write(URL(\'static\',\'js/web2py-bootstrap4.js\'))\nresponse.write(\'"></script>\\r\\n\\r\\n\\r\\n\', escape=False)\nresponse.write(\'\\r\\n<script src="\', escape=False)\nresponse.write(URL(\'static\',\'vendor/highchart/highcharts.js\'))\nresponse.write(\'"></script>\\r\\n<script src="\', escape=False)\nresponse.write(URL(\'static\',\'vendor/highchart/series-label.js\'))\nresponse.write(\'"></script>\\r\\n<script src="\', escape=False)\nresponse.write(URL(\'static\',\'vendor/highchart/exporting.js\'))\nresponse.write(\'"></script>\\r\\n<script src="\', escape=False)\nresponse.write(URL(\'static\',\'vendor/highchart/offline-exporting.js\'))\nresponse.write(\'"></script>\\r\\n<script src="\', escape=False)\nresponse.write(URL(\'static\',\'vendor/highchart/export-data.js\'))\nresponse.write(\'"></script>\\r\\n\\r\\n<script src="\', escape=False)\nresponse.write(URL(\'static\',\'vendor/chart/Chart.min.js\'))\nresponse.write(\'"></script>\\r\\n<script src="\', escape=False)\nresponse.write(URL(\'static\',\'vendor/chart/utils.js\'))\nresponse.write(\'"></script>\\r\\n<!-- <script src="\', escape=False)\nresponse.write(URL(\'static\',\'vendor/chart/configuration.js\'))\nresponse.write(\'"></script> -->\\r\\n\\r\\n<script>\\r\\n  Highcharts.chart("chart", {\\r\\n    title: {\\r\\n      text: "Entradas y Ventas de Piezas, \', escape=False)\nresponse.write(year)\nresponse.write(\'"\\r\\n    },\\r\\n    // subtitle: {\\r\\n    //   text: "Source: thesolarfoundation.com"\\r\\n    // },\\r\\n    xAxis: {\\r\\n      categories: [\\r\\n        "Ene",\\r\\n        "Feb",\\r\\n        "Mar",\\r\\n        "Abr",\\r\\n        "May",\\r\\n        "Jun",\\r\\n        "Jul",\\r\\n        "Ago",\\r\\n        "Sep",\\r\\n        "Oct",\\r\\n        "Nov",\\r\\n        "Dic"\\r\\n      ]\\r\\n    },\\r\\n\\r\\n    yAxis: {\\r\\n      title: {\\r\\n        text: "Valores alcanzados"\\r\\n      }\\r\\n    },\\r\\n    legend: {\\r\\n      layout: "vertical",\\r\\n      align: "right",\\r\\n      verticalAlign: "middle"\\r\\n    },\\r\\n\\r\\n    plotOptions: {\\r\\n      //   series: {\\r\\n      //     label: {\\r\\n      //       connectorAllowed: false\\r\\n      //     },\\r\\n      //     pointStart: 2010\\r\\n      //   }\\r\\n      line: {\\r\\n        dataLabels: {\\r\\n          enabled: false\\r\\n        },\\r\\n        enableMouseTracking: true\\r\\n      }\\r\\n    },\\r\\n\\r\\n    series: [\\r\\n      {\\r\\n        name: "Entradas",\\r\\n        data: [\\r\\n          parseInt("\', escape=False)\nresponse.write(valores_entradas[0])\nresponse.write(\'"),\\r\\n          parseInt("\', escape=False)\nresponse.write(valores_entradas[1])\nresponse.write(\'"),\\r\\n          parseInt("\', escape=False)\nresponse.write(valores_entradas[2])\nresponse.write(\'"),\\r\\n          parseInt("\', escape=False)\nresponse.write(valores_entradas[3])\nresponse.write(\'"),\\r\\n          parseInt("\', escape=False)\nresponse.write(valores_entradas[4])\nresponse.write(\'"),\\r\\n          parseInt("\', escape=False)\nresponse.write(valores_entradas[5])\nresponse.write(\'"),\\r\\n          parseInt("\', escape=False)\nresponse.write(valores_entradas[6])\nresponse.write(\'"),\\r\\n          parseInt("\', escape=False)\nresponse.write(valores_entradas[7])\nresponse.write(\'"),\\r\\n          parseInt("\', escape=False)\nresponse.write(valores_entradas[8])\nresponse.write(\'"),\\r\\n          parseInt("\', escape=False)\nresponse.write(valores_entradas[9])\nresponse.write(\'"),\\r\\n          parseInt("\', escape=False)\nresponse.write(valores_entradas[10])\nresponse.write(\'"),\\r\\n          parseInt("\', escape=False)\nresponse.write(valores_entradas[11])\nresponse.write(\'")\\r\\n        ]\\r\\n      },\\r\\n      {\\r\\n        name: "Ventas",\\r\\n        data: [\\r\\n          parseInt("\', escape=False)\nresponse.write(valores_ventas[0])\nresponse.write(\'"),\\r\\n          parseInt("\', escape=False)\nresponse.write(valores_ventas[1])\nresponse.write(\'"),\\r\\n          parseInt("\', escape=False)\nresponse.write(valores_ventas[2])\nresponse.write(\'"),\\r\\n          parseInt("\', escape=False)\nresponse.write(valores_ventas[3])\nresponse.write(\'"),\\r\\n          parseInt("\', escape=False)\nresponse.write(valores_ventas[4])\nresponse.write(\'"),\\r\\n          parseInt("\', escape=False)\nresponse.write(valores_ventas[5])\nresponse.write(\'"),\\r\\n          parseInt("\', escape=False)\nresponse.write(valores_ventas[6])\nresponse.write(\'"),\\r\\n          parseInt("\', escape=False)\nresponse.write(valores_ventas[7])\nresponse.write(\'"),\\r\\n          parseInt("\', escape=False)\nresponse.write(valores_ventas[8])\nresponse.write(\'"),\\r\\n          parseInt("\', escape=False)\nresponse.write(valores_ventas[9])\nresponse.write(\'"),\\r\\n          parseInt("\', escape=False)\nresponse.write(valores_ventas[10])\nresponse.write(\'"),\\r\\n          parseInt("\', escape=False)\nresponse.write(valores_ventas[11])\nresponse.write(\'")\\r\\n        ],\\r\\n        color: "red"\\r\\n      }\\r\\n      //   {\\r\\n      //     name: "Sales & Distribution",\\r\\n      //     data: [11744, 17722, 16005, 19771, 20185, 24377, 32147, 39387]\\r\\n      //   },\\r\\n      //   {\\r\\n      //     name: "Project Development",\\r\\n      //     data: [null, null, 7988, 12169, 15112, 22452, 34400, 34227]\\r\\n      //   },\\r\\n      //   {\\r\\n      //     name: "Other",\\r\\n      //     data: [12908, 5948, 8105, 11248, 8989, 11816, 18274, 18111]\\r\\n      //   }\\r\\n    ],\\r\\n\\r\\n    responsive: {\\r\\n      rules: [\\r\\n        {\\r\\n          condition: {\\r\\n            maxWidth: 500\\r\\n          },\\r\\n          chartOptions: {\\r\\n            legend: {\\r\\n              layout: "horizontal",\\r\\n              align: "center",\\r\\n              verticalAlign: "bottom"\\r\\n            }\\r\\n          }\\r\\n        }\\r\\n      ]\\r\\n    }\\r\\n  });\\r\\n\\r\\n  /*\\r\\n  var MONTHS = [\\r\\n    "Enero",\\r\\n    "Febrero",\\r\\n    "Marzo",\\r\\n    "Abril",\\r\\n    "Mayo",\\r\\n    "Junio",\\r\\n    "Julio",\\r\\n    "Agosto",\\r\\n    "Septiembre",\\r\\n    "Octubre",\\r\\n    "Noviembre",\\r\\n    "Diciembre"\\r\\n  ];\\r\\n\\r\\n  var randomScalingFactor = function() {\\r\\n    return Math.round(Math.random() * 100);\\r\\n  };\\r\\n\\r\\n  var config = {\\r\\n    type: "line",\\r\\n    data: {\\r\\n      labels: [\\r\\n        "Enero",\\r\\n        "Febrero",\\r\\n        "Marzo",\\r\\n        "Abril",\\r\\n        "Mayo",\\r\\n        "Junio",\\r\\n        "Julio",\\r\\n        "Agosto",\\r\\n        "Septiembre",\\r\\n        "Octubre",\\r\\n        "Noviembre",\\r\\n        "Diciembre"\\r\\n      ],\\r\\n      datasets: [\\r\\n        {\\r\\n          label: "Ventas",\\r\\n          backgroundColor: window.chartColors.red,\\r\\n          borderColor: window.chartColors.red,\\r\\n          data: [\\r\\n            parseInt("\', escape=False)\nresponse.write(valores[0])\nresponse.write(\'"),\\r\\n            parseInt("\', escape=False)\nresponse.write(valores[1])\nresponse.write(\'"),\\r\\n            parseInt("\', escape=False)\nresponse.write(valores[2])\nresponse.write(\'"),\\r\\n            parseInt("\', escape=False)\nresponse.write(valores[3])\nresponse.write(\'"),\\r\\n            parseInt("\', escape=False)\nresponse.write(valores[4])\nresponse.write(\'"),\\r\\n            parseInt("\', escape=False)\nresponse.write(valores[5])\nresponse.write(\'"),\\r\\n            parseInt("\', escape=False)\nresponse.write(valores[6])\nresponse.write(\'"),\\r\\n            parseInt("\', escape=False)\nresponse.write(valores[7])\nresponse.write(\'"),\\r\\n            parseInt("\', escape=False)\nresponse.write(valores[8])\nresponse.write(\'"),\\r\\n            parseInt("\', escape=False)\nresponse.write(valores[9])\nresponse.write(\'"),\\r\\n            parseInt("\', escape=False)\nresponse.write(valores[10])\nresponse.write(\'"),\\r\\n            parseInt("\', escape=False)\nresponse.write(valores[11])\nresponse.write(\'")\\r\\n          ],\\r\\n          fill: false\\r\\n        }\\r\\n      ]\\r\\n    },\\r\\n    options: {\\r\\n      responsive: true,\\r\\n      title: {\\r\\n        display: true,\\r\\n        text: "Estad\\xc3\\xadstica Mensual " + "\', escape=False)\nresponse.write(year)\nresponse.write(\'"\\r\\n      },\\r\\n      tooltips: {\\r\\n        mode: "index",\\r\\n        intersect: false\\r\\n      },\\r\\n      hover: {\\r\\n        mode: "nearest",\\r\\n        intersect: true\\r\\n      },\\r\\n      scales: {\\r\\n        xAxes: [\\r\\n          {\\r\\n            display: true,\\r\\n            scaleLabel: {\\r\\n              display: true,\\r\\n              labelString: "Meses del A\\xc3\\xb1o"\\r\\n            }\\r\\n          }\\r\\n        ],\\r\\n        yAxes: [\\r\\n          {\\r\\n            display: true,\\r\\n            scaleLabel: {\\r\\n              display: true,\\r\\n              labelString: "Valores Alcanzados"\\r\\n            },\\r\\n            ticks: {\\r\\n              min: 0,\\r\\n              max: 100,\\r\\n\\r\\n              // forces step size to be 5 units\\r\\n              stepSize: 10\\r\\n            }\\r\\n          }\\r\\n        ]\\r\\n      }\\r\\n    }\\r\\n  };\\r\\n\\r\\n  window.onload = function() {\\r\\n    var ctx = document.getElementById("canvas").getContext("2d");\\r\\n    window.myLine = new Chart(ctx, config);\\r\\n  };\\r\\n  */\\r\\n</script>\\r\\n\', escape=False)\nresponse.write(\' \', escape=False)\nif response.google_analytics_id:\n    response.write(\'\\r\\n<!-- Analytics ==================================== -->\\r\\n<script src="\', escape=False)\n    response.write(URL(\'static\',\'js/analytics.min.js\'))\n    response.write(\'"></script>\\r\\n<script type="text/javascript">\\r\\n    analytics.initialize({\\r\\n        \\\'Google Analytics\\\': {\\r\\n            trackingId: \\\'\', escape=False)\n    response.write(response.google_analytics_id)\n    response.write("\'\\r\\n        }\\r\\n    });\\r\\n</script>\\r\\n", escape=False)\n    pass\nresponse.write(\'\\r\\n\\r\\n<script src="\', escape=False)\nresponse.write(URL(\'static\',\'vendor/layout_ela/js/lib/toastr/toastr.min.js\'))\nresponse.write(\'"></script>\\r\\n\\r\\n\', escape=False)\nif response.flash:\n    response.write("\\r\\n<script>\\r\\n$(document).ready(function() {\\r\\n    toastr.info(\'", escape=False)\n    response.write(response.flash)\n    response.write(\'\\\',\\\'Mensaje\\\',{\\r\\n        timeOut: 5000,\\r\\n        "closeButton": true,\\r\\n        "debug": false,\\r\\n        "newestOnTop": true,\\r\\n        "progressBar": true,\\r\\n        "positionClass": "toast-top-right",\\r\\n        "preventDuplicates": true,\\r\\n        "onclick": null,\\r\\n        "showDuration": "300",\\r\\n        "hideDuration": "1000",\\r\\n        "extendedTimeOut": "1000",\\r\\n        "showEasing": "swing",\\r\\n        "hideEasing": "linear",\\r\\n        "showMethod": "fadeIn",\\r\\n        "hideMethod": "fadeOut",\\r\\n        "tapToDismiss": false\\r\\n\\r\\n    })\\r\\n});\\r\\n</script>\\r\\n\', escape=False)\n    pass\nresponse.write(\'\\r\\n</body>\\r\\n\\r\\n</html>\', escape=False)'
p7
sS'snapshot'
p8
(dp9
S'exception'
p10
(dp11
S'__getslice__'
p12
S"<method-wrapper '__getslice__' of exceptions.NameError object>"
p13
sS'__str__'
p14
S"<method-wrapper '__str__' of exceptions.NameError object>"
p15
sS'__reduce__'
p16
S'<built-in method __reduce__ of exceptions.NameError object>'
p17
sS'__dict__'
p18
S'{}'
p19
sS'message'
p20
S'"name \'valores\' is not defined"'
p21
sS'__sizeof__'
p22
S'<built-in method __sizeof__ of exceptions.NameError object>'
p23
sS'__init__'
p24
S"<method-wrapper '__init__' of exceptions.NameError object>"
p25
sS'__setattr__'
p26
S"<method-wrapper '__setattr__' of exceptions.NameError object>"
p27
sS'__reduce_ex__'
p28
S'<built-in method __reduce_ex__ of exceptions.NameError object>'
p29
sS'__new__'
p30
S'<built-in method __new__ of type object>'
p31
sS'__format__'
p32
S'<built-in method __format__ of exceptions.NameError object>'
p33
sS'__class__'
p34
S"<type 'exceptions.NameError'>"
p35
sS'__doc__'
p36
S"'Name not found globally.'"
p37
sS'__getitem__'
p38
S"<method-wrapper '__getitem__' of exceptions.NameError object>"
p39
sS'__setstate__'
p40
S'<built-in method __setstate__ of exceptions.NameError object>'
p41
sS'__getattribute__'
p42
S"<method-wrapper '__getattribute__' of exceptions.NameError object>"
p43
sS'args'
p44
S'("name \'valores\' is not defined",)'
p45
sS'__subclasshook__'
p46
S'<built-in method __subclasshook__ of type object>'
p47
sS'__unicode__'
p48
S'<built-in method __unicode__ of exceptions.NameError object>'
p49
sS'__delattr__'
p50
S"<method-wrapper '__delattr__' of exceptions.NameError object>"
p51
sS'__repr__'
p52
S"<method-wrapper '__repr__' of exceptions.NameError object>"
p53
sS'__hash__'
p54
S"<method-wrapper '__hash__' of exceptions.NameError object>"
p55
ssS'evalue'
p56
S"name 'valores' is not defined"
p57
sS'request'
p58
cgluon.html
XML_unpickle
p59
(S's`b\x00\x00<div><table><tr><td style="font-weight:bold;vertical-align:top;">ajax</td><td style="vertical-align:top;">:</td><td><div>False</div></td></tr><tr><td style="font-weight:bold;vertical-align:top;">application</td><td style="vertical-align:top;">:</td><td><div>Piezas</div></td></tr><tr><td style="font-weight:bold;vertical-align:top;">args</td><td style="vertical-align:top;">:</td><td><div><table></table></div></td></tr><tr><td style="font-weight:bold;vertical-align:top;">cid</td><td style="vertical-align:top;">:</td><td><div>None</div></td></tr><tr><td style="font-weight:bold;vertical-align:top;">client</td><td style="vertical-align:top;">:</td><td><div>127.0.0.1</div></td></tr><tr><td style="font-weight:bold;vertical-align:top;">controller</td><td style="vertical-align:top;">:</td><td><div>estadisticas</div></td></tr><tr><td style="font-weight:bold;vertical-align:top;">cookies</td><td style="vertical-align:top;">:</td><td><div><table><tr><td style="font-weight:bold;vertical-align:top;">session_id_admin</td><td style="vertical-align:top;">:</td><td><div>127.0.0.1-f84f00c2-fe3b-4c0a-bce9-d5cb7d96d402<table><tr><td style="font-weight:bold;vertical-align:top;">comment</td><td style="vertical-align:top;">:</td><td><div></div></td></tr><tr><td style="font-weight:bold;vertical-align:top;">domain</td><td style="vertical-align:top;">:</td><td><div></div></td></tr><tr><td style="font-weight:bold;vertical-align:top;">expires</td><td style="vertical-align:top;">:</td><td><div></div></td></tr><tr><td style="font-weight:bold;vertical-align:top;">httponly</td><td style="vertical-align:top;">:</td><td><div></div></td></tr><tr><td style="font-weight:bold;vertical-align:top;">max-age</td><td style="vertical-align:top;">:</td><td><div></div></td></tr><tr><td style="font-weight:bold;vertical-align:top;">path</td><td style="vertical-align:top;">:</td><td><div></div></td></tr><tr><td style="font-weight:bold;vertical-align:top;">samesite</td><td style="vertical-align:top;">:</td><td><div></div></td></tr><tr><td style="font-weight:bold;vertical-align:top;">secure</td><td style="vertical-align:top;">:</td><td><div></div></td></tr><tr><td style="font-weight:bold;vertical-align:top;">version</td><td style="vertical-align:top;">:</td><td><div></div></td></tr></table></div></td></tr><tr><td style="font-weight:bold;vertical-align:top;">session_id_facturas</td><td style="vertical-align:top;">:</td><td><div>127.0.0.1-a17eb876-ef77-4e80-a6b8-8ed3713dcbb3<table><tr><td style="font-weight:bold;vertical-align:top;">comment</td><td style="vertical-align:top;">:</td><td><div></div></td></tr><tr><td style="font-weight:bold;vertical-align:top;">domain</td><td style="vertical-align:top;">:</td><td><div></div></td></tr><tr><td style="font-weight:bold;vertical-align:top;">expires</td><td style="vertical-align:top;">:</td><td><div></div></td></tr><tr><td style="font-weight:bold;vertical-align:top;">httponly</td><td style="vertical-align:top;">:</td><td><div></div></td></tr><tr><td style="font-weight:bold;vertical-align:top;">max-age</td><td style="vertical-align:top;">:</td><td><div></div></td></tr><tr><td style="font-weight:bold;vertical-align:top;">path</td><td style="vertical-align:top;">:</td><td><div></div></td></tr><tr><td style="font-weight:bold;vertical-align:top;">samesite</td><td style="vertical-align:top;">:</td><td><div></div></td></tr><tr><td style="font-weight:bold;vertical-align:top;">secure</td><td style="vertical-align:top;">:</td><td><div></div></td></tr><tr><td style="font-weight:bold;vertical-align:top;">version</td><td style="vertical-align:top;">:</td><td><div></div></td></tr></table></div></td></tr><tr><td style="font-weight:bold;vertical-align:top;">session_id_piezas</td><td style="vertical-align:top;">:</td><td><div>127.0.0.1-1704d61b-55ee-4a64-9455-41ae795c4541<table><tr><td style="font-weight:bold;vertical-align:top;">comment</td><td style="vertical-align:top;">:</td><td><div></div></td></tr><tr><td style="font-weight:bold;vertical-align:top;">domain</td><td style="vertical-align:top;">:</td><td><div></div></td></tr><tr><td style="font-weight:bold;vertical-align:top;">expires</td><td style="vertical-align:top;">:</td><td><div></div></td></tr><tr><td style="font-weight:bold;vertical-align:top;">httponly</td><td style="vertical-align:top;">:</td><td><div></div></td></tr><tr><td style="font-weight:bold;vertical-align:top;">max-age</td><td style="vertical-align:top;">:</td><td><div></div></td></tr><tr><td style="font-weight:bold;vertical-align:top;">path</td><td style="vertical-align:top;">:</td><td><div></div></td></tr><tr><td style="font-weight:bold;vertical-align:top;">samesite</td><td style="vertical-align:top;">:</td><td><div></div></td></tr><tr><td style="font-weight:bold;vertical-align:top;">secure</td><td style="vertical-align:top;">:</td><td><div></div></td></tr><tr><td style="font-weight:bold;vertical-align:top;">version</td><td style="vertical-align:top;">:</td><td><div></div></td></tr></table></div></td></tr><tr><td style="font-weight:bold;vertical-align:top;">session_id_welcome</td><td style="vertical-align:top;">:</td><td><div>127.0.0.1-c3ba49c5-4f52-4e53-89d2-ef9a85283ec2<table><tr><td style="font-weight:bold;vertical-align:top;">comment</td><td style="vertical-align:top;">:</td><td><div></div></td></tr><tr><td style="font-weight:bold;vertical-align:top;">domain</td><td style="vertical-align:top;">:</td><td><div></div></td></tr><tr><td style="font-weight:bold;vertical-align:top;">expires</td><td style="vertical-align:top;">:</td><td><div></div></td></tr><tr><td style="font-weight:bold;vertical-align:top;">httponly</td><td style="vertical-align:top;">:</td><td><div></div></td></tr><tr><td style="font-weight:bold;vertical-align:top;">max-age</td><td style="vertical-align:top;">:</td><td><div></div></td></tr><tr><td style="font-weight:bold;vertical-align:top;">path</td><td style="vertical-align:top;">:</td><td><div></div></td></tr><tr><td style="font-weight:bold;vertical-align:top;">samesite</td><td style="vertical-align:top;">:</td><td><div></div></td></tr><tr><td style="font-weight:bold;vertical-align:top;">secure</td><td style="vertical-align:top;">:</td><td><div></div></td></tr><tr><td style="font-weight:bold;vertical-align:top;">version</td><td style="vertical-align:top;">:</td><td><div></div></td></tr></table></div></td></tr></table></div></td></tr><tr><td style="font-weight:bold;vertical-align:top;">env</td><td style="vertical-align:top;">:</td><td><div><table><tr><td style="font-weight:bold;vertical-align:top;">HTTP_ACCEPT</td><td style="vertical-align:top;">:</td><td><div>text/html,application/xhtml+xml,application/xml;q=0.9,*/*;q=0.8</div></td></tr><tr><td style="font-weight:bold;vertical-align:top;">HTTP_ACCEPT_ENCODING</td><td style="vertical-align:top;">:</td><td><div>gzip, deflate</div></td></tr><tr><td style="font-weight:bold;vertical-align:top;">HTTP_ACCEPT_LANGUAGE</td><td style="vertical-align:top;">:</td><td><div>es-MX,es;q=0.8,en-US;q=0.5,en;q=0.3</div></td></tr><tr><td style="font-weight:bold;vertical-align:top;">HTTP_CONNECTION</td><td style="vertical-align:top;">:</td><td><div>keep-alive</div></td></tr><tr><td style="font-weight:bold;vertical-align:top;">HTTP_COOKIE</td><td style="vertical-align:top;">:</td><td><div>session_id_admin=127.0.0.1-f84f00c2-fe3b-4c0a-bce9-d5cb7d96d402; session_id_piezas=127.0.0.1-1704d61b-55ee-4a64-9455-41ae795c4541; session_id_welcome=127.0.0.1-c3ba49c5-4f52-4e53-89d2-ef9a85283ec2; session_id_facturas=127.0.0.1-a17eb876-ef77-4e80-a6b8-8ed3713dcbb3</div></td></tr><tr><td style="font-weight:bold;vertical-align:top;">HTTP_HOST</td><td style="vertical-align:top;">:</td><td><div>127.0.0.1:8000</div></td></tr><tr><td style="font-weight:bold;vertical-align:top;">HTTP_UPGRADE_INSECURE_REQUESTS</td><td style="vertical-align:top;">:</td><td><div>1</div></td></tr><tr><td style="font-weight:bold;vertical-align:top;">HTTP_USER_AGENT</td><td style="vertical-align:top;">:</td><td><div>Mozilla/5.0 (Windows NT 6.1; rv:69.0) Gecko/20100101 Firefox/69.0</div></td></tr><tr><td style="font-weight:bold;vertical-align:top;">PATH_INFO</td><td style="vertical-align:top;">:</td><td><div>/Piezas/estadisticas/estadistica_general</div></td></tr><tr><td style="font-weight:bold;vertical-align:top;">QUERY_STRING</td><td style="vertical-align:top;">:</td><td><div></div></td></tr><tr><td style="font-weight:bold;vertical-align:top;">REMOTE_ADDR</td><td style="vertical-align:top;">:</td><td><div>127.0.0.1</div></td></tr><tr><td style="font-weight:bold;vertical-align:top;">REMOTE_PORT</td><td style="vertical-align:top;">:</td><td><div>1468</div></td></tr><tr><td style="font-weight:bold;vertical-align:top;">REQUEST_METHOD</td><td style="vertical-align:top;">:</td><td><div>GET</div></td></tr><tr><td style="font-weight:bold;vertical-align:top;">SCRIPT_NAME</td><td style="vertical-align:top;">:</td><td><div></div></td></tr><tr><td style="font-weight:bold;vertical-align:top;">SERVER_NAME</td><td style="vertical-align:top;">:</td><td><div>Jorgito-PC</div></td></tr><tr><td style="font-weight:bold;vertical-align:top;">SERVER_PORT</td><td style="vertical-align:top;">:</td><td><div>8000</div></td></tr><tr><td style="font-weight:bold;vertical-align:top;">SERVER_PROTOCOL</td><td style="vertical-align:top;">:</td><td><div>HTTP/1.1</div></td></tr><tr><td style="font-weight:bold;vertical-align:top;">SERVER_SOFTWARE</td><td style="vertical-align:top;">:</td><td><div>Rocket 1.2.6</div></td></tr><tr><td style="font-weight:bold;vertical-align:top;">app_folders</td><td style="vertical-align:top;">:</td><td><div>set([&#x27;D:\\\\Desarrollo\\\\web2py_2.18.5_win\\\\applications\\\\admin&#x27;, &#x27;D:\\\\Desarrollo\\\\web2py_2.18.5_win\\\\applications\\\\welcome&#x27;, &#x27;D:\\\\Desarrollo\\\\web2py_2.18.5_win\\\\applications\\\\Piezas&#x27;])</div></td></tr><tr><td style="font-weight:bold;vertical-align:top;">applications_parent</td><td style="vertical-align:top;">:</td><td><div>D:\\Desarrollo\\web2py_2.18.5_win</div></td></tr><tr><td style="font-weight:bold;vertical-align:top;">cmd_args</td><td style="vertical-align:top;">:</td><td><div><table></table></div></td></tr><tr><td style="font-weight:bold;vertical-align:top;">cmd_options</td><td style="vertical-align:top;">:</td><td><div>&lt;Values at 0x268b710: {&#x27;verbose&#x27;: False, &#x27;ip&#x27;: &#x27;127.0.0.1&#x27;, &#x27;debuglevel&#x27;: 30, &#x27;with_scheduler&#x27;: False, &#x27;shutdown_timeout&#x27;: 5, &#x27;taskbar&#x27;: False, &#x27;with_coverage&#x27;: False, &#x27;pid_filename&#x27;: &#x27;httpserver.pid&#x27;, &#x27;maxthreads&#x27;: None, &#x27;softcron&#x27;: False, &#x27;server_name&#x27;: &#x27;Jorgito-PC&#x27;, &#x27;bpython&#x27;: False, &#x27;nogui&#x27;: False, &#x27;port&#x27;: 8000, &#x27;print_errors&#x27;: False, &#x27;extcron&#x27;: False, &#x27;runcron&#x27;: False, &#x27;run_system_tests&#x27;: False, &#x27;test&#x27;: None, &#x27;folder&#x27;: &#x27;D:\\\\Desarrollo\\\\web2py_2.18.5_win&#x27;, &#x27;config&#x27;: &#x27;&#x27;, &#x27;minthreads&#x27;: None, &#x27;shell&#x27;: None, &#x27;run&#x27;: &#x27;&#x27;, &#x27;log_filename&#x27;: &#x27;httpserver.log&#x27;, &#x27;profiler_dir&#x27;: None, &#x27;args&#x27;: [], &#x27;socket_timeout&#x27;: 5, &#x27;ssl_ca_certificate&#x27;: None, &#x27;scheduler&#x27;: None, &#x27;interfaces&#x27;: None, &#x27;ssl_private_key&#x27;: &#x27;&#x27;, &#x27;gae&#x27;: None, &#x27;password&#x27;: &#x27;******&#x27;, &#x27;request_queue_size&#x27;: 5, &#x27;ssl_certificate&#x27;: &#x27;&#x27;, &#x27;cronjob&#x27;: False, &#x27;numthreads&#x27;: None, &#x27;quiet&#x27;: False, &#x27;import_models&#x27;: False, &#x27;timeout&#x27;: 10, &#x27;plain&#x27;: False, &#x27;nobanner&#x27;: False}&gt;</div></td></tr><tr><td style="font-weight:bold;vertical-align:top;">db_sessions</td><td style="vertical-align:top;">:</td><td><div>set([])</div></td></tr><tr><td style="font-weight:bold;vertical-align:top;">debugging</td><td style="vertical-align:top;">:</td><td><div>False</div></td></tr><tr><td style="font-weight:bold;vertical-align:top;">gluon_parent</td><td style="vertical-align:top;">:</td><td><div>D:\\Desarrollo\\web2py_2.18.5_win</div></td></tr><tr><td style="font-weight:bold;vertical-align:top;">http_accept</td><td style="vertical-align:top;">:</td><td><div>text/html,application/xhtml+xml,application/xml;q=0.9,*/*;q=0.8</div></td></tr><tr><td style="font-weight:bold;vertical-align:top;">http_accept_encoding</td><td style="vertical-align:top;">:</td><td><div>gzip, deflate</div></td></tr><tr><td style="font-weight:bold;vertical-align:top;">http_accept_language</td><td style="vertical-align:top;">:</td><td><div>es-MX,es;q=0.8,en-US;q=0.5,en;q=0.3</div></td></tr><tr><td style="font-weight:bold;vertical-align:top;">http_connection</td><td style="vertical-align:top;">:</td><td><div>keep-alive</div></td></tr><tr><td style="font-weight:bold;vertical-align:top;">http_cookie</td><td style="vertical-align:top;">:</td><td><div>session_id_admin=127.0.0.1-f84f00c2-fe3b-4c0a-bce9-d5cb7d96d402; session_id_piezas=127.0.0.1-1704d61b-55ee-4a64-9455-41ae795c4541; session_id_welcome=127.0.0.1-c3ba49c5-4f52-4e53-89d2-ef9a85283ec2; session_id_facturas=127.0.0.1-a17eb876-ef77-4e80-a6b8-8ed3713dcbb3</div></td></tr><tr><td style="font-weight:bold;vertical-align:top;">http_host</td><td style="vertical-align:top;">:</td><td><div>127.0.0.1:8000</div></td></tr><tr><td style="font-weight:bold;vertical-align:top;">http_upgrade_insecure_requests</td><td style="vertical-align:top;">:</td><td><div>1</div></td></tr><tr><td style="font-weight:bold;vertical-align:top;">http_user_agent</td><td style="vertical-align:top;">:</td><td><div>Mozilla/5.0 (Windows NT 6.1; rv:69.0) Gecko/20100101 Firefox/69.0</div></td></tr><tr><td style="font-weight:bold;vertical-align:top;">is_jython</td><td style="vertical-align:top;">:</td><td><div>False</div></td></tr><tr><td style="font-weight:bold;vertical-align:top;">is_py2</td><td style="vertical-align:top;">:</td><td><div>True</div></td></tr><tr><td style="font-weight:bold;vertical-align:top;">is_pypy</td><td style="vertical-align:top;">:</td><td><div>False</div></td></tr><tr><td style="font-weight:bold;vertical-align:top;">is_source</td><td style="vertical-align:top;">:</td><td><div>False</div></td></tr><tr><td style="font-weight:bold;vertical-align:top;">local_hosts</td><td style="vertical-align:top;">:</td><td><div><table><tr><td><div>Jorgito-PC</div></td></tr><tr><td><div>::1</div></td></tr><tr><td><div>::ffff:127.0.0.1</div></td></tr><tr><td><div>127.0.0.1</div></td></tr></table></div></td></tr><tr><td style="font-weight:bold;vertical-align:top;">path_info</td><td style="vertical-align:top;">:</td><td><div>/Piezas/estadisticas/estadistica_general</div></td></tr><tr><td style="font-weight:bold;vertical-align:top;">query_string</td><td style="vertical-align:top;">:</td><td><div></div></td></tr><tr><td style="font-weight:bold;vertical-align:top;">remote_addr</td><td style="vertical-align:top;">:</td><td><div>127.0.0.1</div></td></tr><tr><td style="font-weight:bold;vertical-align:top;">remote_port</td><td style="vertical-align:top;">:</td><td><div>1468</div></td></tr><tr><td style="font-weight:bold;vertical-align:top;">request_method</td><td style="vertical-align:top;">:</td><td><div>GET</div></td></tr><tr><td style="font-weight:bold;vertical-align:top;">request_uri</td><td style="vertical-align:top;">:</td><td><div>/Piezas/estadisticas/estadistica_general</div></td></tr><tr><td style="font-weight:bold;vertical-align:top;">script_name</td><td style="vertical-align:top;">:</td><td><div></div></td></tr><tr><td style="font-weight:bold;vertical-align:top;">server_name</td><td style="vertical-align:top;">:</td><td><div>Jorgito-PC</div></td></tr><tr><td style="font-weight:bold;vertical-align:top;">server_port</td><td style="vertical-align:top;">:</td><td><div>8000</div></td></tr><tr><td style="font-weight:bold;vertical-align:top;">server_protocol</td><td style="vertical-align:top;">:</td><td><div>HTTP/1.1</div></td></tr><tr><td style="font-weight:bold;vertical-align:top;">server_software</td><td style="vertical-align:top;">:</td><td><div>Rocket 1.2.6</div></td></tr><tr><td style="font-weight:bold;vertical-align:top;">web2py_original_uri</td><td style="vertical-align:top;">:</td><td><div>/Piezas/estadisticas/estadistica_general</div></td></tr><tr><td style="font-weight:bold;vertical-align:top;">web2py_path</td><td style="vertical-align:top;">:</td><td><div>D:\\Desarrollo\\web2py_2.18.5_win</div></td></tr><tr><td style="font-weight:bold;vertical-align:top;">web2py_version</td><td style="vertical-align:top;">:</td><td><div>2.18.5-stable+timestamp.2019.04.08.04.22.03</div></td></tr><tr><td style="font-weight:bold;vertical-align:top;">wsgi.errors</td><td style="vertical-align:top;">:</td><td><div>&lt;open file &#x27;&lt;stderr&gt;&#x27;, mode &#x27;w&#x27; at 0x011BD0D0&gt;</div></td></tr><tr><td style="font-weight:bold;vertical-align:top;">wsgi.file_wrapper</td><td style="vertical-align:top;">:</td><td><div>&lt;class wsgiref.util.FileWrapper at 0x0266CB20&gt;</div></td></tr><tr><td style="font-weight:bold;vertical-align:top;">wsgi.input</td><td style="vertical-align:top;">:</td><td><div>&lt;socket._fileobject object at 0x035F2370&gt;</div></td></tr><tr><td style="font-weight:bold;vertical-align:top;">wsgi.multiprocess</td><td style="vertical-align:top;">:</td><td><div>False</div></td></tr><tr><td style="font-weight:bold;vertical-align:top;">wsgi.multithread</td><td style="vertical-align:top;">:</td><td><div>True</div></td></tr><tr><td style="font-weight:bold;vertical-align:top;">wsgi.run_once</td><td style="vertical-align:top;">:</td><td><div>False</div></td></tr><tr><td style="font-weight:bold;vertical-align:top;">wsgi.url_scheme</td><td style="vertical-align:top;">:</td><td><div>http</div></td></tr><tr><td style="font-weight:bold;vertical-align:top;">wsgi.version</td><td style="vertical-align:top;">:</td><td><div><table><tr><td><div>1</div></td></tr><tr><td><div>0</div></td></tr></table></div></td></tr><tr><td style="font-weight:bold;vertical-align:top;">wsgi_errors</td><td style="vertical-align:top;">:</td><td><div>&lt;open file &#x27;&lt;stderr&gt;&#x27;, mode &#x27;w&#x27; at 0x011BD0D0&gt;</div></td></tr><tr><td style="font-weight:bold;vertical-align:top;">wsgi_file_wrapper</td><td style="vertical-align:top;">:</td><td><div>&lt;class wsgiref.util.FileWrapper at 0x0266CB20&gt;</div></td></tr><tr><td style="font-weight:bold;vertical-align:top;">wsgi_input</td><td style="vertical-align:top;">:</td><td><div>&lt;socket._fileobject object at 0x035F2370&gt;</div></td></tr><tr><td style="font-weight:bold;vertical-align:top;">wsgi_multiprocess</td><td style="vertical-align:top;">:</td><td><div>False</div></td></tr><tr><td style="font-weight:bold;vertical-align:top;">wsgi_multithread</td><td style="vertical-align:top;">:</td><td><div>True</div></td></tr><tr><td style="font-weight:bold;vertical-align:top;">wsgi_run_once</td><td style="vertical-align:top;">:</td><td><div>False</div></td></tr><tr><td style="font-weight:bold;vertical-align:top;">wsgi_url_scheme</td><td style="vertical-align:top;">:</td><td><div>http</div></td></tr><tr><td style="font-weight:bold;vertical-align:top;">wsgi_version</td><td style="vertical-align:top;">:</td><td><div><table><tr><td><div>1</div></td></tr><tr><td><div>0</div></td></tr></table></div></td></tr></table></div></td></tr><tr><td style="font-weight:bold;vertical-align:top;">extension</td><td style="vertical-align:top;">:</td><td><div>html</div></td></tr><tr><td style="font-weight:bold;vertical-align:top;">folder</td><td style="vertical-align:top;">:</td><td><div>D:\\Desarrollo\\web2py_2.18.5_win\\applications\\Piezas</div></td></tr><tr><td style="font-weight:bold;vertical-align:top;">function</td><td style="vertical-align:top;">:</td><td><div>estadistica_general</div></td></tr><tr><td style="font-weight:bold;vertical-align:top;">global_settings</td><td style="vertical-align:top;">:</td><td><div><table><tr><td style="font-weight:bold;vertical-align:top;">app_folders</td><td style="vertical-align:top;">:</td><td><div>set([&#x27;D:\\\\Desarrollo\\\\web2py_2.18.5_win\\\\applications\\\\admin&#x27;, &#x27;D:\\\\Desarrollo\\\\web2py_2.18.5_win\\\\applications\\\\welcome&#x27;, &#x27;D:\\\\Desarrollo\\\\web2py_2.18.5_win\\\\applications\\\\Piezas&#x27;])</div></td></tr><tr><td style="font-weight:bold;vertical-align:top;">applications_parent</td><td style="vertical-align:top;">:</td><td><div>D:\\Desarrollo\\web2py_2.18.5_win</div></td></tr><tr><td style="font-weight:bold;vertical-align:top;">cmd_args</td><td style="vertical-align:top;">:</td><td><div><table></table></div></td></tr><tr><td style="font-weight:bold;vertical-align:top;">cmd_options</td><td style="vertical-align:top;">:</td><td><div>&lt;Values at 0x268b710: {&#x27;verbose&#x27;: False, &#x27;ip&#x27;: &#x27;127.0.0.1&#x27;, &#x27;debuglevel&#x27;: 30, &#x27;with_scheduler&#x27;: False, &#x27;shutdown_timeout&#x27;: 5, &#x27;taskbar&#x27;: False, &#x27;with_coverage&#x27;: False, &#x27;pid_filename&#x27;: &#x27;httpserver.pid&#x27;, &#x27;maxthreads&#x27;: None, &#x27;softcron&#x27;: False, &#x27;server_name&#x27;: &#x27;Jorgito-PC&#x27;, &#x27;bpython&#x27;: False, &#x27;nogui&#x27;: False, &#x27;port&#x27;: 8000, &#x27;print_errors&#x27;: False, &#x27;extcron&#x27;: False, &#x27;runcron&#x27;: False, &#x27;run_system_tests&#x27;: False, &#x27;test&#x27;: None, &#x27;folder&#x27;: &#x27;D:\\\\Desarrollo\\\\web2py_2.18.5_win&#x27;, &#x27;config&#x27;: &#x27;&#x27;, &#x27;minthreads&#x27;: None, &#x27;shell&#x27;: None, &#x27;run&#x27;: &#x27;&#x27;, &#x27;log_filename&#x27;: &#x27;httpserver.log&#x27;, &#x27;profiler_dir&#x27;: None, &#x27;args&#x27;: [], &#x27;socket_timeout&#x27;: 5, &#x27;ssl_ca_certificate&#x27;: None, &#x27;scheduler&#x27;: None, &#x27;interfaces&#x27;: None, &#x27;ssl_private_key&#x27;: &#x27;&#x27;, &#x27;gae&#x27;: None, &#x27;password&#x27;: &#x27;******&#x27;, &#x27;request_queue_size&#x27;: 5, &#x27;ssl_certificate&#x27;: &#x27;&#x27;, &#x27;cronjob&#x27;: False, &#x27;numthreads&#x27;: None, &#x27;quiet&#x27;: False, &#x27;import_models&#x27;: False, &#x27;timeout&#x27;: 10, &#x27;plain&#x27;: False, &#x27;nobanner&#x27;: False}&gt;</div></td></tr><tr><td style="font-weight:bold;vertical-align:top;">db_sessions</td><td style="vertical-align:top;">:</td><td><div>set([])</div></td></tr><tr><td style="font-weight:bold;vertical-align:top;">debugging</td><td style="vertical-align:top;">:</td><td><div>False</div></td></tr><tr><td style="font-weight:bold;vertical-align:top;">gluon_parent</td><td style="vertical-align:top;">:</td><td><div>D:\\Desarrollo\\web2py_2.18.5_win</div></td></tr><tr><td style="font-weight:bold;vertical-align:top;">is_jython</td><td style="vertical-align:top;">:</td><td><div>False</div></td></tr><tr><td style="font-weight:bold;vertical-align:top;">is_py2</td><td style="vertical-align:top;">:</td><td><div>True</div></td></tr><tr><td style="font-weight:bold;vertical-align:top;">is_pypy</td><td style="vertical-align:top;">:</td><td><div>False</div></td></tr><tr><td style="font-weight:bold;vertical-align:top;">is_source</td><td style="vertical-align:top;">:</td><td><div>False</div></td></tr><tr><td style="font-weight:bold;vertical-align:top;">local_hosts</td><td style="vertical-align:top;">:</td><td><div><table><tr><td><div>Jorgito-PC</div></td></tr><tr><td><div>::1</div></td></tr><tr><td><div>::ffff:127.0.0.1</div></td></tr><tr><td><div>127.0.0.1</div></td></tr></table></div></td></tr><tr><td style="font-weight:bold;vertical-align:top;">web2py_version</td><td style="vertical-align:top;">:</td><td><div>2.18.5-stable+timestamp.2019.04.08.04.22.03</div></td></tr></table></div></td></tr><tr><td style="font-weight:bold;vertical-align:top;">is_https</td><td style="vertical-align:top;">:</td><td><div>False</div></td></tr><tr><td style="font-weight:bold;vertical-align:top;">is_local</td><td style="vertical-align:top;">:</td><td><div>True</div></td></tr><tr><td style="font-weight:bold;vertical-align:top;">is_restful</td><td style="vertical-align:top;">:</td><td><div>False</div></td></tr><tr><td style="font-weight:bold;vertical-align:top;">is_scheduler</td><td style="vertical-align:top;">:</td><td><div>False</div></td></tr><tr><td style="font-weight:bold;vertical-align:top;">is_shell</td><td style="vertical-align:top;">:</td><td><div>False</div></td></tr><tr><td style="font-weight:bold;vertical-align:top;">method</td><td style="vertical-align:top;">:</td><td><div>GET</div></td></tr><tr><td style="font-weight:bold;vertical-align:top;">now</td><td style="vertical-align:top;">:</td><td><div>datetime.datetime(2020, 3, 7, 12, 35, 28, 453000)</div></td></tr><tr><td style="font-weight:bold;vertical-align:top;">url</td><td style="vertical-align:top;">:</td><td><div>/Piezas/estadisticas/estadistica_general</div></td></tr><tr><td style="font-weight:bold;vertical-align:top;">utcnow</td><td style="vertical-align:top;">:</td><td><div>datetime.datetime(2020, 3, 7, 3, 5, 28, 453000)</div></td></tr><tr><td style="font-weight:bold;vertical-align:top;">wsgi</td><td style="vertical-align:top;">:</td><td><div>&lt;gluon.main.LazyWSGI object at 0x040F4E10&gt;</div></td></tr></table></div>'
tRp60
sS'frames'
p61
(lp62
(dp63
S'file'
p64
S'D:\\Desarrollo\\web2py_2.18.5_win\\gluon\\restricted.py'
p65
sS'dump'
p66
(dp67
S'environment'
p68
S"{'A': <class 'gluon.html.A'>, 'ANY_OF': <class 'pydal.validators.ANY_OF'>, 'ASSIGNJS': <function ASSIGNJS>, 'AppConfig': <function AppConfig>, 'Auth': <class 'gluon.tools.Auth'>, 'B': <class 'gluon.html.B'>, 'BEAUTIFY': <class 'gluon.html.BEAUTIFY'>, 'BODY': <class 'gluon.html.BODY'>, 'BR': <class 'gluon.html.BR'>, 'BUTTON': <class 'gluon.html.BUTTON'>, ...}"
p69
sS'ccode'
p70
S'<code object <module> at 0743CEC0, file "D:\\Desa...s\\estadisticas/estadistica_general.html", line 1>'
p71
ssS'lnum'
p72
I219
sS'lines'
p73
(dp74
I214
S'    if environment is None:'
p75
sI215
S'        environment = {}'
p76
sI216
S"    environment['__file__'] = layer"
p77
sI217
S"    environment['__name__'] = '__restricted__'"
p78
sI218
S'    try:'
p79
sI219
S'        exec(ccode, environment)'
p80
sI220
S'    except HTTP:'
p81
sI221
S'        raise'
p82
sI222
S'    except RestrictedError:'
p83
sI223
S'        # do not encapsulate (obfuscate) the original RestrictedError'
p84
ssS'call'
p85
S'(ccode=<code object <module> at 0743CEC0, file "D:\\Desa...s\\estadisticas/estadistica_general.html", line 1>, environment={\'A\': <class \'gluon.html.A\'>, \'ANY_OF\': <class \'pydal.validators.ANY_OF\'>, \'ASSIGNJS\': <function ASSIGNJS>, \'AppConfig\': <function AppConfig>, \'Auth\': <class \'gluon.tools.Auth\'>, \'B\': <class \'gluon.html.B\'>, \'BEAUTIFY\': <class \'gluon.html.BEAUTIFY\'>, \'BODY\': <class \'gluon.html.BODY\'>, \'BR\': <class \'gluon.html.BR\'>, \'BUTTON\': <class \'gluon.html.BUTTON\'>, ...}, layer=r\'D:\\Desarrollo\\web2py_2.18.5_win\\applications\\Piezas\\views\\estadisticas/estadistica_general.html\', scode=r"response.write(\'<!DOCTYPE html>\\r\\n<!--[if (gt I...write(\'\\r\\n</body>\\r\\n\\r\\n</html>\', escape=False)")'
p86
sS'func'
p87
S'restricted'
p88
sa(dp89
g64
S'D:\\Desarrollo\\web2py_2.18.5_win\\applications\\Piezas\\views\\estadisticas\\estadistica_general.html'
p90
sg66
(dp91
sg72
I213
sg73
(dp92
I204
S'response.write(\'"),\\r\\n          parseInt("\', escape=False)'
p93
sI205
S'response.write(valores_ventas[8])'
p94
sI206
S'response.write(\'"),\\r\\n          parseInt("\', escape=False)'
p95
sI207
S'response.write(valores_ventas[9])'
p96
sI208
S'response.write(\'"),\\r\\n          parseInt("\', escape=False)'
p97
sI209
S'response.write(valores_ventas[10])'
p98
sI210
S'response.write(\'"),\\r\\n          parseInt("\', escape=False)'
p99
sI211
S'response.write(valores_ventas[11])'
p100
sI212
S'response.write(\'")\\r\\n        ],\\r\\n        color: "red"\\r\\n      }\\r\\n      //   {\\r\\n      //     name: "Sales & Distribution",\\r\\n      //     data: [11744, 17722, 16005, 19771, 20185, 24377, 32147, 39387]\\r\\n      //   },\\r\\n      //   {\\r\\n      //     name: "Project Development",\\r\\n      //     data: [null, null, 7988, 12169, 15112, 22452, 34400, 34227]\\r\\n      //   },\\r\\n      //   {\\r\\n      //     name: "Other",\\r\\n      //     data: [12908, 5948, 8105, 11248, 8989, 11816, 18274, 18111]\\r\\n      //   }\\r\\n    ],\\r\\n\\r\\n    responsive: {\\r\\n      rules: [\\r\\n        {\\r\\n          condition: {\\r\\n            maxWidth: 500\\r\\n          },\\r\\n          chartOptions: {\\r\\n            legend: {\\r\\n              layout: "horizontal",\\r\\n              align: "center",\\r\\n              verticalAlign: "bottom"\\r\\n            }\\r\\n          }\\r\\n        }\\r\\n      ]\\r\\n    }\\r\\n  });\\r\\n\\r\\n  /*\\r\\n  var MONTHS = [\\r\\n    "Enero",\\r\\n    "Febrero",\\r\\n    "Marzo",\\r\\n    "Abril",\\r\\n    "Mayo",\\r\\n    "Junio",\\r\\n    "Julio",\\r\\n    "Agosto",\\r\\n    "Septiembre",\\r\\n    "Octubre",\\r\\n    "Noviembre",\\r\\n    "Diciembre"\\r\\n  ];\\r\\n\\r\\n  var randomScalingFactor = function() {\\r\\n    return Math.round(Math.random() * 100);\\r\\n  };\\r\\n\\r\\n  var config = {\\r\\n    type: "line",\\r\\n    data: {\\r\\n      labels: [\\r\\n        "Enero",\\r\\n        "Febrero",\\r\\n        "Marzo",\\r\\n        "Abril",\\r\\n        "Mayo",\\r\\n        "Junio",\\r\\n        "Julio",\\r\\n        "Agosto",\\r\\n        "Septiembre",\\r\\n        "Octubre",\\r\\n        "Noviembre",\\r\\n        "Diciembre"\\r\\n      ],\\r\\n      datasets: [\\r\\n        {\\r\\n          label: "Ventas",\\r\\n          backgroundColor: window.chartColors.red,\\r\\n          borderColor: window.chartColors.red,\\r\\n          data: [\\r\\n            parseInt("\', escape=False)'
p101
sI213
S'response.write(valores[0])'
p102
sI214
S'response.write(\'"),\\r\\n            parseInt("\', escape=False)'
p103
sI215
S'response.write(valores[1])'
p104
sI216
S'response.write(\'"),\\r\\n            parseInt("\', escape=False)'
p105
sI217
S'response.write(valores[2])'
p106
sI218
S'response.write(\'"),\\r\\n            parseInt("\', escape=False)'
p107
sI219
S'response.write(valores[3])'
p108
sI220
S'response.write(\'"),\\r\\n            parseInt("\', escape=False)'
p109
sI221
S'response.write(valores[4])'
p110
sI222
S'response.write(\'"),\\r\\n            parseInt("\', escape=False)'
p111
sI223
S'response.write(valores[5])'
p112
ssg85
S'()'
p113
sg87
S'<module>'
p114
sasS'pyver'
p115
S'Python 2.7.9: D:\\Desarrollo\\web2py_2.18.5_win\\web2py.exe (prefix: )'
p116
sS'session'
p117
g59
(S's\x1a\x00\x00\x00<div><table></table></div>'
tRp118
sS'etype'
p119
S"<type 'exceptions.NameError'>"
p120
sS'date'
p121
S'Sat Mar 07 12:35:29 2020'
p122
sS'response'
p123
g59
(S's\xe1\'\x00\x00<div><table><tr><td style="font-weight:bold;vertical-align:top;">body</td><td style="vertical-align:top;">:</td><td><div>&lt;cStringIO.StringO object at 0x040F4FA0&gt;</div></td></tr><tr><td style="font-weight:bold;vertical-align:top;">cookies</td><td style="vertical-align:top;">:</td><td><div><table><tr><td style="font-weight:bold;vertical-align:top;">session_id_piezas</td><td style="vertical-align:top;">:</td><td><div>127.0.0.1-a70ccea8-c68e-4f5d-a1f4-f9cd812ec2a4<table><tr><td style="font-weight:bold;vertical-align:top;">comment</td><td style="vertical-align:top;">:</td><td><div></div></td></tr><tr><td style="font-weight:bold;vertical-align:top;">domain</td><td style="vertical-align:top;">:</td><td><div></div></td></tr><tr><td style="font-weight:bold;vertical-align:top;">expires</td><td style="vertical-align:top;">:</td><td><div></div></td></tr><tr><td style="font-weight:bold;vertical-align:top;">httponly</td><td style="vertical-align:top;">:</td><td><div></div></td></tr><tr><td style="font-weight:bold;vertical-align:top;">max-age</td><td style="vertical-align:top;">:</td><td><div></div></td></tr><tr><td style="font-weight:bold;vertical-align:top;">path</td><td style="vertical-align:top;">:</td><td><div>/</div></td></tr><tr><td style="font-weight:bold;vertical-align:top;">samesite</td><td style="vertical-align:top;">:</td><td><div></div></td></tr><tr><td style="font-weight:bold;vertical-align:top;">secure</td><td style="vertical-align:top;">:</td><td><div></div></td></tr><tr><td style="font-weight:bold;vertical-align:top;">version</td><td style="vertical-align:top;">:</td><td><div></div></td></tr></table></div></td></tr></table></div></td></tr><tr><td style="font-weight:bold;vertical-align:top;">delimiters</td><td style="vertical-align:top;">:</td><td><div><table><tr><td><div>{{</div></td></tr><tr><td><div>}}</div></td></tr></table></div></td></tr><tr><td style="font-weight:bold;vertical-align:top;">files</td><td style="vertical-align:top;">:</td><td><div><table><tr><td><div>/Piezas/static/js/jquery.js</div></td></tr><tr><td><div>/Piezas/static/css/calendar.css</div></td></tr><tr><td><div>/Piezas/static/js/calendar.js</div></td></tr><tr><td><div>/Piezas/static/js/web2py.js</div></td></tr></table></div></td></tr><tr><td style="font-weight:bold;vertical-align:top;">flash</td><td style="vertical-align:top;">:</td><td><div></div></td></tr><tr><td style="font-weight:bold;vertical-align:top;">form_label_separator</td><td style="vertical-align:top;">:</td><td><div></div></td></tr><tr><td style="font-weight:bold;vertical-align:top;">formstyle</td><td style="vertical-align:top;">:</td><td><div>bootstrap4_inline</div></td></tr><tr><td style="font-weight:bold;vertical-align:top;">generic_patterns</td><td style="vertical-align:top;">:</td><td><div><table><tr><td><div>*</div></td></tr></table></div></td></tr><tr><td style="font-weight:bold;vertical-align:top;">google_analytics_id</td><td style="vertical-align:top;">:</td><td><div>None</div></td></tr><tr><td style="font-weight:bold;vertical-align:top;">headers</td><td style="vertical-align:top;">:</td><td><div><table><tr><td style="font-weight:bold;vertical-align:top;">X-Powered-By</td><td style="vertical-align:top;">:</td><td><div>web2py</div></td></tr></table></div></td></tr><tr><td style="font-weight:bold;vertical-align:top;">menu</td><td style="vertical-align:top;">:</td><td><div><table><tr><td><div><table><tr><td><div>Inicio</div></td></tr><tr><td><div>False</div></td></tr><tr><td><div>/Piezas</div></td></tr><tr><td><div><table></table></div></td></tr></table></div></td></tr><tr><td><div><table><tr><td><div>Piezas</div></td></tr><tr><td><div>False</div></td></tr><tr><td><div>pieza</div></td></tr><tr><td><div><table><tr><td><div><table><tr><td><div>A\xc3\xb1adir pieza</div></td></tr><tr><td><div>False</div></td></tr><tr><td><div>/Piezas/pieza/crear</div></td></tr></table></div></td></tr><tr><td><div><table><tr><td><div>Administrar pieza</div></td></tr><tr><td><div>False</div></td></tr><tr><td><div>/Piezas/pieza/administrar</div></td></tr></table></div></td></tr></table></div></td></tr></table></div></td></tr><tr><td><div><table><tr><td><div>Proveedores</div></td></tr><tr><td><div>False</div></td></tr><tr><td><div>proveedor</div></td></tr><tr><td><div><table><tr><td><div><table><tr><td><div>A\xc3\xb1adir proveedor</div></td></tr><tr><td><div>False</div></td></tr><tr><td><div>/Piezas/proveedor/crear</div></td></tr></table></div></td></tr><tr><td><div><table><tr><td><div>Administrar proveedor</div></td></tr><tr><td><div>False</div></td></tr><tr><td><div>/Piezas/proveedor/administrar</div></td></tr></table></div></td></tr></table></div></td></tr></table></div></td></tr><tr><td><div><table><tr><td><div>Ventas</div></td></tr><tr><td><div>False</div></td></tr><tr><td><div>venta</div></td></tr><tr><td><div><table><tr><td><div><table><tr><td><div>Realizar venta</div></td></tr><tr><td><div>False</div></td></tr><tr><td><div>/Piezas/venta/seleccionar_pieza</div></td></tr></table></div></td></tr><tr><td><div><table><tr><td><div>Administrar ventas</div></td></tr><tr><td><div>False</div></td></tr><tr><td><div>/Piezas/venta/administrar</div></td></tr></table></div></td></tr></table></div></td></tr></table></div></td></tr><tr><td><div><table><tr><td><div>Estad\xc3\xadsticas</div></td></tr><tr><td><div>False</div></td></tr><tr><td><div>estadisticas</div></td></tr><tr><td><div><table><tr><td><div><table><tr><td><div>Por Pieza</div></td></tr><tr><td><div>False</div></td></tr><tr><td><div>/Piezas/estadisticas/piezas</div></td></tr></table></div></td></tr><tr><td><div><table><tr><td><div>General</div></td></tr><tr><td><div>False</div></td></tr><tr><td><div>/Piezas/estadisticas/estadistica_general</div></td></tr></table></div></td></tr></table></div></td></tr></table></div></td></tr><tr><td><div><table><tr><td><div>Base de datos</div></td></tr><tr><td><div>False</div></td></tr><tr><td><div>base_datos</div></td></tr><tr><td><div><table><tr><td><div><table><tr><td><div>Salvar base de datos</div></td></tr><tr><td><div>False</div></td></tr><tr><td><div>/Piezas/base_datos/salvar</div></td></tr></table></div></td></tr><tr><td><div><table><tr><td><div>Cargar salva</div></td></tr><tr><td><div>False</div></td></tr><tr><td><div>/Piezas/base_datos/cargar</div></td></tr></table></div></td></tr></table></div></td></tr></table></div></td></tr><tr><td><div><table><tr><td><div>Eliminar todo</div></td></tr><tr><td><div>False</div></td></tr><tr><td><div>/Piezas/base_datos/eliminar</div></td></tr></table></div></td></tr></table></div></td></tr><tr><td style="font-weight:bold;vertical-align:top;">meta</td><td style="vertical-align:top;">:</td><td><div><table><tr><td style="font-weight:bold;vertical-align:top;">author</td><td style="vertical-align:top;">:</td><td><div>Your Name &lt;you@example.com&gt;</div></td></tr><tr><td style="font-weight:bold;vertical-align:top;">description</td><td style="vertical-align:top;">:</td><td><div>a cool new app</div></td></tr><tr><td style="font-weight:bold;vertical-align:top;">generator</td><td style="vertical-align:top;">:</td><td><div>Web2py Web Framework</div></td></tr><tr><td style="font-weight:bold;vertical-align:top;">keywords</td><td style="vertical-align:top;">:</td><td><div><table><tr><td><div>web2py</div></td></tr><tr><td><div>python</div></td></tr><tr><td><div>framework</div></td></tr></table></div></td></tr></table></div></td></tr><tr><td style="font-weight:bold;vertical-align:top;">models_to_run</td><td style="vertical-align:top;">:</td><td><div><table><tr><td><div>^\\w+\\.py$</div></td></tr><tr><td><div>^estadisticas/\\w+\\.py$</div></td></tr><tr><td><div>^estadisticas/estadistica_general/\\w+\\.py$</div></td></tr></table></div></td></tr><tr><td style="font-weight:bold;vertical-align:top;">postprocessing</td><td style="vertical-align:top;">:</td><td><div><table></table></div></td></tr><tr><td style="font-weight:bold;vertical-align:top;">session_client</td><td style="vertical-align:top;">:</td><td><div>127.0.0.1</div></td></tr><tr><td style="font-weight:bold;vertical-align:top;">session_cookie_compression_level</td><td style="vertical-align:top;">:</td><td><div>None</div></td></tr><tr><td style="font-weight:bold;vertical-align:top;">session_cookie_expires</td><td style="vertical-align:top;">:</td><td><div>None</div></td></tr><tr><td style="font-weight:bold;vertical-align:top;">session_data_name</td><td style="vertical-align:top;">:</td><td><div>session_data_piezas</div></td></tr><tr><td style="font-weight:bold;vertical-align:top;">session_file</td><td style="vertical-align:top;">:</td><td><div>None</div></td></tr><tr><td style="font-weight:bold;vertical-align:top;">session_filename</td><td style="vertical-align:top;">:</td><td><div>D:\\Desarrollo\\web2py_2.18.5_win\\applications\\Piezas\\sessions\\127.0.0.1-a70ccea8-c68e-4f5d-a1f4-f9cd812ec2a4</div></td></tr><tr><td style="font-weight:bold;vertical-align:top;">session_hash</td><td style="vertical-align:top;">:</td><td><div>c0762cbf4baf7f9af97c051e7fcb8083</div></td></tr><tr><td style="font-weight:bold;vertical-align:top;">session_id</td><td style="vertical-align:top;">:</td><td><div>127.0.0.1-a70ccea8-c68e-4f5d-a1f4-f9cd812ec2a4</div></td></tr><tr><td style="font-weight:bold;vertical-align:top;">session_id_name</td><td style="vertical-align:top;">:</td><td><div>session_id_piezas</div></td></tr><tr><td style="font-weight:bold;vertical-align:top;">session_masterapp</td><td style="vertical-align:top;">:</td><td><div>Piezas</div></td></tr><tr><td style="font-weight:bold;vertical-align:top;">session_new</td><td style="vertical-align:top;">:</td><td><div>True</div></td></tr><tr><td style="font-weight:bold;vertical-align:top;">session_storage_type</td><td style="vertical-align:top;">:</td><td><div>file</div></td></tr><tr><td style="font-weight:bold;vertical-align:top;">show_toolbar</td><td style="vertical-align:top;">:</td><td><div>False</div></td></tr><tr><td style="font-weight:bold;vertical-align:top;">status</td><td style="vertical-align:top;">:</td><td><div>200</div></td></tr><tr><td style="font-weight:bold;vertical-align:top;">view</td><td style="vertical-align:top;">:</td><td><div>estadisticas/estadistica_general.html</div></td></tr></table></div>'
tRp124
sS'locals'
p125
(dp126
S'valores_entradas'
p127
S'[0, 0, 10L, 4L, 0, 0, 0, 0, 0, 0, 0, 0]'
p128
sS'PY2'
p129
S'True'
p130
sS'OBJECT'
p131
S"<class 'gluon.html.OBJECT'>"
p132
sS'SQLDB'
p133
S"<class 'pydal.base.DAL'>"
p134
sg117
S"<Storage {'_formkey[default]': ['26cb5297-7e30-44f0-9d35-c6c660c3e4d9']}>"
p135
sS'LINK'
p136
S"<class 'gluon.html.LINK'>"
p137
sS'BR'
p138
S"<class 'gluon.html.BR'>"
p139
sS'local_import'
p140
S'<function <lambda>>'
p141
sS'OPTGROUP'
p142
S"<class 'gluon.html.OPTGROUP'>"
p143
sS'__package__'
p144
S'None'
p145
sS'PRE'
p146
S"<class 'gluon.html.PRE'>"
p147
sS'IS_INT_IN_RANGE'
p148
S"<class 'pydal.validators.IS_INT_IN_RANGE'>"
p149
sS'to_bytes'
p150
S'<function to_bytes>'
p151
sS'IS_LOWER'
p152
S"<class 'pydal.validators.IS_LOWER'>"
p153
sS'IS_STRONG'
p154
S"<class 'pydal.validators.IS_STRONG'>"
p155
sS'cache'
p156
S'<gluon.cache.Cache object>'
p157
sS'IS_IN_DB'
p158
S"<class 'pydal.validators.IS_IN_DB'>"
p159
sS'TAG'
p160
S'<gluon.html.__TAG__ object>'
p161
sS'SQLField'
p162
S"<class 'pydal.objects.Field'>"
p163
sS'mail'
p164
S'<gluon.tools.Mail object>'
p165
sS'BODY'
p166
S"<class 'gluon.html.BODY'>"
p167
sS'IS_DATE_IN_RANGE'
p168
S"<class 'pydal.validators.IS_DATE_IN_RANGE'>"
p169
sS'IFRAME'
p170
S"<class 'gluon.html.IFRAME'>"
p171
sS'URL'
p172
S'<function URL>'
p173
sS'__file__'
p174
S"r'D:\\Desarrollo\\web2py_2.18.5_win\\applications\\Piezas\\views\\estadisticas/estadistica_general.html'"
p175
sS'db'
p176
S'<DAL uri="sqlite://storage.sqlite">'
p177
sS'auth'
p178
S'<gluon.tools.Auth object>'
p179
sS'P'
S"<class 'gluon.html.P'>"
p180
sS'TFOOT'
p181
S"<class 'gluon.html.TFOOT'>"
p182
sS'iteritems'
p183
S'<function <lambda>>'
p184
sS'XHTML'
p185
S"<class 'gluon.html.XHTML'>"
p186
sS'ON'
p187
g130
sS'OL'
p188
S"<class 'gluon.html.OL'>"
p189
sS'TEXTAREA'
p190
S"<class 'gluon.html.TEXTAREA'>"
p191
sS'MENU'
p192
S"<class 'gluon.html.MENU'>"
p193
sS'IS_SLUG'
p194
S"<class 'pydal.validators.IS_SLUG'>"
p195
sS'IS_IMAGE'
p196
S"<class 'pydal.validators.IS_IMAGE'>"
p197
sS'EM'
p198
S"<class 'gluon.html.EM'>"
p199
sS'CODE'
p200
S"<class 'gluon.html.CODE'>"
p201
sS'HTTP'
p202
S"<class 'gluon.http.HTTP'>"
p203
sS'HR'
p204
S"<class 'gluon.html.HR'>"
p205
sS'IS_DATETIME'
p206
S"<class 'pydal.validators.IS_DATETIME'>"
p207
sS'reduce'
p208
S'<built-in function reduce>'
p209
sS'STYLE'
p210
S"<class 'gluon.html.STYLE'>"
p211
sS'LABEL'
p212
S"<class 'gluon.html.LABEL'>"
p213
sS'CLEANUP'
p214
S"<class 'pydal.validators.CLEANUP'>"
p215
sS'year'
p216
S'2020'
p217
sS'SELECT'
p218
S"<class 'gluon.html.SELECT'>"
p219
sS'CENTER'
p220
S"<class 'gluon.html.CENTER'>"
p221
sS'Auth'
p222
S"<class 'gluon.tools.Auth'>"
p223
sS'__builtins__'
p224
S"{'ArithmeticError': <type 'exceptions.ArithmeticError'>, 'AssertionError': <type 'exceptions.AssertionError'>, 'AttributeError': <type 'exceptions.AttributeError'>, 'BaseException': <type 'exceptions.BaseException'>, 'BufferError': <type 'exceptions.BufferError'>, 'BytesWarning': <type 'exceptions.BytesWarning'>, 'DeprecationWarning': <type 'exceptions.DeprecationWarning'>, 'EOFError': <type 'exceptions.EOFError'>, 'Ellipsis': Ellipsis, 'EnvironmentError': <type 'exceptions.EnvironmentError'>, ...}"
p225
sS'HTML'
p226
S"<class 'gluon.html.HTML'>"
p227
sS'SQLFORM'
p228
S"<class 'gluon.sqlhtml.SQLFORM'>"
p229
sS'_item'
p230
S"(<lazyT 'Eliminar todo'>, False, '/Piezas/base_datos/eliminar')"
p231
sS'LOAD'
p232
S'<function LOAD>'
p233
sS'redirect'
p234
S'<function redirect>'
p235
sS'FIELDSET'
p236
S"<class 'gluon.html.FIELDSET'>"
p237
sS'IS_EQUAL_TO'
p238
S"<class 'pydal.validators.IS_EQUAL_TO'>"
p239
sS'embed64'
p240
S'<function embed64>'
p241
sS'IS_LIST_OF'
p242
S"<class 'pydal.validators.IS_LIST_OF'>"
p243
sS'INPUT'
p244
S"<class 'gluon.html.INPUT'>"
p245
sS'EMBED'
p246
S"<class 'gluon.html.EMBED'>"
p247
sS'configuration'
p248
S"{'host': {'names': 'localhost:*, 127.0.0.1:*, *:...': 'sqlite://storage.sqlite', 'pool_size': '10'}}"
p249
sS'H2'
p250
S"<class 'gluon.html.H2'>"
p251
sS'H3'
p252
S"<class 'gluon.html.H3'>"
p253
sS'AppConfig'
p254
S'<function AppConfig>'
p255
sS'H1'
p256
S"<class 'gluon.html.H1'>"
p257
sS'H6'
p258
S"<class 'gluon.html.H6'>"
p259
sS'H4'
p260
S"<class 'gluon.html.H4'>"
p261
sS'H5'
p262
S"<class 'gluon.html.H5'>"
p263
sS'UL'
p264
S"<class 'gluon.html.UL'>"
p265
sS'IS_UPPER'
p266
S"<class 'pydal.validators.IS_UPPER'>"
p267
sS'xmlescape'
p268
S'<function xmlescape>'
p269
sS'IS_TIME'
p270
S"<class 'pydal.validators.IS_TIME'>"
p271
sS'OPTION'
p272
S"<class 'gluon.html.OPTION'>"
p273
sS'TITLE'
p274
S"<class 'gluon.html.TITLE'>"
p275
sS'CRYPT'
p276
S"<class 'pydal.validators.CRYPT'>"
p277
sS'IS_EMPTY_OR'
p278
S"<class 'pydal.validators.IS_EMPTY_OR'>"
p279
sS'MARKMIN'
p280
S"<class 'gluon.html.MARKMIN'>"
p281
sS'__name__'
p282
S"'__restricted__'"
p283
sS'STRONG'
p284
S"<class 'gluon.html.STRONG'>"
p285
sS'COL'
p286
S"<class 'gluon.html.COL'>"
p287
sS'SCRIPT'
p288
S"<class 'gluon.html.SCRIPT'>"
p289
sS'valores_ventas'
p290
S'[0, 0, 3L, 6L, 0, 0, 0, 0, 0, 0, 0, 0]'
p291
sS'_subitem'
p292
S"(<lazyT 'Cargar salva'>, False, '/Piezas/base_datos/cargar')"
p293
sS'TABLE'
p294
S"<class 'gluon.html.TABLE'>"
p295
sS'icon'
p296
S"{'Base de datos': 'fa-database', 'Eliminar todo': 'fa-trash', 'Estad\\xc3\\xadsticas': 'fa-signal', 'Inicio': 'fa-home', 'Piezas': 'fa-desktop', 'Proveedores': 'fa-user', 'Usuario': 'fa-user-circle', 'Ventas': 'fa-money'}"
p297
sS'IS_IPV4'
p298
S"<class 'pydal.validators.IS_IPV4'>"
p299
sS'IS_LENGTH'
p300
S"<class 'pydal.validators.IS_LENGTH'>"
p301
sS'IS_IPV6'
p302
S"<class 'pydal.validators.IS_IPV6'>"
p303
sS'XML'
p304
S"<class 'gluon.html.XML'>"
p305
sS'B'
S"<class 'gluon.html.B'>"
p306
sS'IMG'
p307
S"<class 'gluon.html.IMG'>"
p308
sS'SQLTABLE'
p309
S"<class 'gluon.sqlhtml.SQLTABLE'>"
p310
sS'IS_MATCH'
p311
S"<class 'pydal.validators.IS_MATCH'>"
p312
sS'IS_ALPHANUMERIC'
p313
S"<class 'pydal.validators.IS_ALPHANUMERIC'>"
p314
sS'__author__'
p315
S"'Jorgito'"
p316
sS'_app'
p317
S"'Piezas'"
p318
sS'__format_fecha'
p319
S'<function __format_fecha>'
p320
sS'SPAN'
p321
S"<class 'gluon.html.SPAN'>"
p322
sS'IS_JSON'
p323
S"<class 'pydal.validators.IS_JSON'>"
p324
sS'IS_IPADDRESS'
p325
S"<class 'pydal.validators.IS_IPADDRESS'>"
p326
sS'config_general'
p327
S"{'create': False, 'csv': False, 'deletable': False, 'details': False, 'editable': False, 'maxtextlength': 100, 'paginate': False, 'searchable': False, 'sortable': False, 'user_signature': False}"
p328
sS'BEAUTIFY'
p329
S"<class 'gluon.html.BEAUTIFY'>"
p330
sS'META'
p331
S"<class 'gluon.html.META'>"
p332
sS'BUTTON'
p333
S"<class 'gluon.html.BUTTON'>"
p334
sS'IS_DATE'
p335
S"<class 'pydal.validators.IS_DATE'>"
p336
sS'IS_EMAIL'
p337
S"<class 'pydal.validators.IS_EMAIL'>"
p338
sS'IS_NOT_EMPTY'
p339
S"<class 'pydal.validators.IS_NOT_EMPTY'>"
p340
sS'xrange'
p341
S"<type 'xrange'>"
p342
sS'TBODY'
p343
S"<class 'gluon.html.TBODY'>"
p344
sS'CAT'
p345
S"<class 'gluon.html.CAT'>"
p346
sS'Field'
p347
S"<class 'pydal.objects.Field'>"
p348
sS'IS_LIST_OF_EMAILS'
p349
S"<class 'pydal.validators.IS_LIST_OF_EMAILS'>"
p350
sg58
S"<Storage {'_vars': None, 'function': 'estadistic...8.5_win\\\\applications\\\\Piezas', 'method': 'GET'}>"
p351
sS'DIV'
p352
S"<class 'gluon.html.DIV'>"
p353
sS'LEGEND'
p354
S"<class 'gluon.html.LEGEND'>"
p355
sS'form'
p356
S'<gluon.html.FORM object>'
p357
sS'to_native'
p358
S'<function to_native>'
p359
sS'COLGROUP'
p360
S"<class 'gluon.html.COLGROUP'>"
p361
sS'DAL'
p362
S"<class 'pydal.base.DAL'>"
p363
sS'ASSIGNJS'
p364
S'<function ASSIGNJS>'
p365
sS'TR'
p366
S"<class 'gluon.html.TR'>"
p367
sS'LI'
p368
S"<class 'gluon.html.LI'>"
p369
sS'date_widget'
p370
S'<function date_widget>'
p371
sS'TH'
p372
S"<class 'gluon.html.TH'>"
p373
sS'TD'
p374
S"<class 'gluon.html.TD'>"
p375
sS'IS_URL'
p376
S"<class 'pydal.validators.IS_URL'>"
p377
sS'A'
S"<class 'gluon.html.A'>"
p378
sS'HEAD'
p379
S"<class 'gluon.html.HEAD'>"
p380
sS'IS_DATETIME_IN_RANGE'
p381
S"<class 'pydal.validators.IS_DATETIME_IN_RANGE'>"
p382
sS'FORM'
p383
S"<class 'gluon.html.FORM'>"
p384
sS'I'
S"<class 'gluon.html.I'>"
p385
sS'IS_NOT_IN_DB'
p386
S"<class 'pydal.validators.IS_NOT_IN_DB'>"
p387
sS'IS_FILE'
p388
S"<class 'pydal.validators.IS_FILE'>"
p389
sg123
S"<Storage {'body': <cStringIO.StringO object at 0...'view': 'estadisticas/estadistica_general.html'}>"
p390
sS'THEAD'
p391
S"<class 'gluon.html.THEAD'>"
p392
sS'ANY_OF'
p393
S"<class 'pydal.validators.ANY_OF'>"
p394
sS'IS_NULL_OR'
p395
S"<class 'pydal.validators.IS_EMPTY_OR'>"
p396
sS'IS_FLOAT_IN_RANGE'
p397
S"<class 'pydal.validators.IS_FLOAT_IN_RANGE'>"
p398
sS'IS_EXPR'
p399
S"<class 'pydal.validators.IS_EXPR'>"
p400
sS'T'
S'<gluon.languages.TranslatorFactory object>'
p401
sS'IS_IN_SET'
p402
S"<class 'pydal.validators.IS_IN_SET'>"
p403
sS'IS_UPLOAD_FILENAME'
p404
S"<class 'pydal.validators.IS_UPLOAD_FILENAME'>"
p405
sS'TT'
p406
S"<class 'gluon.html.TT'>"
p407
sS'IS_DECIMAL_IN_RANGE'
p408
S"<class 'pydal.validators.IS_DECIMAL_IN_RANGE'>"
p409
sssS'traceback'
p410
S'Traceback (most recent call last):\n  File "D:\\Desarrollo\\web2py_2.18.5_win\\gluon\\restricted.py", line 219, in restricted\n    exec(ccode, environment)\n  File "D:\\Desarrollo\\web2py_2.18.5_win\\applications\\Piezas\\views\\estadisticas/estadistica_general.html", line 213, in <module>\n    "Noviembre",\nNameError: name \'valores\' is not defined\n'
p411
s.