(dp1
S'output'
p2
S"<type 'exceptions.AttributeError'> 'builtin_function_or_method' object has no attribute 'type'"
p3
sS'layer'
p4
S'D:\\Desarrollo\\web2py_2.18.5_win\\applications\\Piezas\\controllers/estadisticas.py'
p5
sS'code'
p6
S'<code object <module> at 041D3650, file "D:\\Desarrollo\\web2py_2.18.5_win\\applications\\Piezas\\controllers/estadisticas.py", line 1>'
p7
sS'snapshot'
p8
(dp9
S'exception'
p10
(dp11
S'__getslice__'
p12
S"<method-wrapper '__getslice__' of exceptions.AttributeError object>"
p13
sS'__str__'
p14
S"<method-wrapper '__str__' of exceptions.AttributeError object>"
p15
sS'__reduce__'
p16
S'<built-in method __reduce__ of exceptions.AttributeError object>'
p17
sS'__dict__'
p18
S'{}'
p19
sS'message'
p20
S'"\'builtin_function_or_method\' object has no attribute \'type\'"'
p21
sS'__sizeof__'
p22
S'<built-in method __sizeof__ of exceptions.AttributeError object>'
p23
sS'__init__'
p24
S"<method-wrapper '__init__' of exceptions.AttributeError object>"
p25
sS'__setattr__'
p26
S"<method-wrapper '__setattr__' of exceptions.AttributeError object>"
p27
sS'__reduce_ex__'
p28
S'<built-in method __reduce_ex__ of exceptions.AttributeError object>'
p29
sS'__new__'
p30
S'<built-in method __new__ of type object>'
p31
sS'__format__'
p32
S'<built-in method __format__ of exceptions.AttributeError object>'
p33
sS'__class__'
p34
S"<type 'exceptions.AttributeError'>"
p35
sS'__doc__'
p36
S"'Attribute not found.'"
p37
sS'__getitem__'
p38
S"<method-wrapper '__getitem__' of exceptions.AttributeError object>"
p39
sS'__setstate__'
p40
S'<built-in method __setstate__ of exceptions.AttributeError object>'
p41
sS'__getattribute__'
p42
S"<method-wrapper '__getattribute__' of exceptions.AttributeError object>"
p43
sS'args'
p44
S'("\'builtin_function_or_method\' object has no attribute \'type\'",)'
p45
sS'__subclasshook__'
p46
S'<built-in method __subclasshook__ of type object>'
p47
sS'__unicode__'
p48
S'<built-in method __unicode__ of exceptions.AttributeError object>'
p49
sS'__delattr__'
p50
S"<method-wrapper '__delattr__' of exceptions.AttributeError object>"
p51
sS'__repr__'
p52
S"<method-wrapper '__repr__' of exceptions.AttributeError object>"
p53
sS'__hash__'
p54
S"<method-wrapper '__hash__' of exceptions.AttributeError object>"
p55
ssS'evalue'
p56
S"'builtin_function_or_method' object has no attribute 'type'"
p57
sS'request'
p58
cgluon.html
XML_unpickle
p59
(S's\x8fc\x00\x00<div><table><tr><td style="font-weight:bold;vertical-align:top;">ajax</td><td style="vertical-align:top;">:</td><td><div>False</div></td></tr><tr><td style="font-weight:bold;vertical-align:top;">application</td><td style="vertical-align:top;">:</td><td><div>Piezas</div></td></tr><tr><td style="font-weight:bold;vertical-align:top;">args</td><td style="vertical-align:top;">:</td><td><div><table></table></div></td></tr><tr><td style="font-weight:bold;vertical-align:top;">cid</td><td style="vertical-align:top;">:</td><td><div>None</div></td></tr><tr><td style="font-weight:bold;vertical-align:top;">client</td><td style="vertical-align:top;">:</td><td><div>127.0.0.1</div></td></tr><tr><td style="font-weight:bold;vertical-align:top;">controller</td><td style="vertical-align:top;">:</td><td><div>estadisticas</div></td></tr><tr><td style="font-weight:bold;vertical-align:top;">cookies</td><td style="vertical-align:top;">:</td><td><div><table><tr><td style="font-weight:bold;vertical-align:top;">session_id_admin</td><td style="vertical-align:top;">:</td><td><div>127.0.0.1-f84f00c2-fe3b-4c0a-bce9-d5cb7d96d402<table><tr><td style="font-weight:bold;vertical-align:top;">comment</td><td style="vertical-align:top;">:</td><td><div></div></td></tr><tr><td style="font-weight:bold;vertical-align:top;">domain</td><td style="vertical-align:top;">:</td><td><div></div></td></tr><tr><td style="font-weight:bold;vertical-align:top;">expires</td><td style="vertical-align:top;">:</td><td><div></div></td></tr><tr><td style="font-weight:bold;vertical-align:top;">httponly</td><td style="vertical-align:top;">:</td><td><div></div></td></tr><tr><td style="font-weight:bold;vertical-align:top;">max-age</td><td style="vertical-align:top;">:</td><td><div></div></td></tr><tr><td style="font-weight:bold;vertical-align:top;">path</td><td style="vertical-align:top;">:</td><td><div></div></td></tr><tr><td style="font-weight:bold;vertical-align:top;">samesite</td><td style="vertical-align:top;">:</td><td><div></div></td></tr><tr><td style="font-weight:bold;vertical-align:top;">secure</td><td style="vertical-align:top;">:</td><td><div></div></td></tr><tr><td style="font-weight:bold;vertical-align:top;">version</td><td style="vertical-align:top;">:</td><td><div></div></td></tr></table></div></td></tr><tr><td style="font-weight:bold;vertical-align:top;">session_id_facturas</td><td style="vertical-align:top;">:</td><td><div>127.0.0.1-a17eb876-ef77-4e80-a6b8-8ed3713dcbb3<table><tr><td style="font-weight:bold;vertical-align:top;">comment</td><td style="vertical-align:top;">:</td><td><div></div></td></tr><tr><td style="font-weight:bold;vertical-align:top;">domain</td><td style="vertical-align:top;">:</td><td><div></div></td></tr><tr><td style="font-weight:bold;vertical-align:top;">expires</td><td style="vertical-align:top;">:</td><td><div></div></td></tr><tr><td style="font-weight:bold;vertical-align:top;">httponly</td><td style="vertical-align:top;">:</td><td><div></div></td></tr><tr><td style="font-weight:bold;vertical-align:top;">max-age</td><td style="vertical-align:top;">:</td><td><div></div></td></tr><tr><td style="font-weight:bold;vertical-align:top;">path</td><td style="vertical-align:top;">:</td><td><div></div></td></tr><tr><td style="font-weight:bold;vertical-align:top;">samesite</td><td style="vertical-align:top;">:</td><td><div></div></td></tr><tr><td style="font-weight:bold;vertical-align:top;">secure</td><td style="vertical-align:top;">:</td><td><div></div></td></tr><tr><td style="font-weight:bold;vertical-align:top;">version</td><td style="vertical-align:top;">:</td><td><div></div></td></tr></table></div></td></tr><tr><td style="font-weight:bold;vertical-align:top;">session_id_piezas</td><td style="vertical-align:top;">:</td><td><div>127.0.0.1-b774e4b6-4506-4dce-a4da-74ac135772a5<table><tr><td style="font-weight:bold;vertical-align:top;">comment</td><td style="vertical-align:top;">:</td><td><div></div></td></tr><tr><td style="font-weight:bold;vertical-align:top;">domain</td><td style="vertical-align:top;">:</td><td><div></div></td></tr><tr><td style="font-weight:bold;vertical-align:top;">expires</td><td style="vertical-align:top;">:</td><td><div></div></td></tr><tr><td style="font-weight:bold;vertical-align:top;">httponly</td><td style="vertical-align:top;">:</td><td><div></div></td></tr><tr><td style="font-weight:bold;vertical-align:top;">max-age</td><td style="vertical-align:top;">:</td><td><div></div></td></tr><tr><td style="font-weight:bold;vertical-align:top;">path</td><td style="vertical-align:top;">:</td><td><div></div></td></tr><tr><td style="font-weight:bold;vertical-align:top;">samesite</td><td style="vertical-align:top;">:</td><td><div></div></td></tr><tr><td style="font-weight:bold;vertical-align:top;">secure</td><td style="vertical-align:top;">:</td><td><div></div></td></tr><tr><td style="font-weight:bold;vertical-align:top;">version</td><td style="vertical-align:top;">:</td><td><div></div></td></tr></table></div></td></tr><tr><td style="font-weight:bold;vertical-align:top;">session_id_welcome</td><td style="vertical-align:top;">:</td><td><div>127.0.0.1-c3ba49c5-4f52-4e53-89d2-ef9a85283ec2<table><tr><td style="font-weight:bold;vertical-align:top;">comment</td><td style="vertical-align:top;">:</td><td><div></div></td></tr><tr><td style="font-weight:bold;vertical-align:top;">domain</td><td style="vertical-align:top;">:</td><td><div></div></td></tr><tr><td style="font-weight:bold;vertical-align:top;">expires</td><td style="vertical-align:top;">:</td><td><div></div></td></tr><tr><td style="font-weight:bold;vertical-align:top;">httponly</td><td style="vertical-align:top;">:</td><td><div></div></td></tr><tr><td style="font-weight:bold;vertical-align:top;">max-age</td><td style="vertical-align:top;">:</td><td><div></div></td></tr><tr><td style="font-weight:bold;vertical-align:top;">path</td><td style="vertical-align:top;">:</td><td><div></div></td></tr><tr><td style="font-weight:bold;vertical-align:top;">samesite</td><td style="vertical-align:top;">:</td><td><div></div></td></tr><tr><td style="font-weight:bold;vertical-align:top;">secure</td><td style="vertical-align:top;">:</td><td><div></div></td></tr><tr><td style="font-weight:bold;vertical-align:top;">version</td><td style="vertical-align:top;">:</td><td><div></div></td></tr></table></div></td></tr></table></div></td></tr><tr><td style="font-weight:bold;vertical-align:top;">env</td><td style="vertical-align:top;">:</td><td><div><table><tr><td style="font-weight:bold;vertical-align:top;">HTTP_ACCEPT</td><td style="vertical-align:top;">:</td><td><div>text/html,application/xhtml+xml,application/xml;q=0.9,*/*;q=0.8</div></td></tr><tr><td style="font-weight:bold;vertical-align:top;">HTTP_ACCEPT_ENCODING</td><td style="vertical-align:top;">:</td><td><div>gzip, deflate</div></td></tr><tr><td style="font-weight:bold;vertical-align:top;">HTTP_ACCEPT_LANGUAGE</td><td style="vertical-align:top;">:</td><td><div>es-MX,es;q=0.8,en-US;q=0.5,en;q=0.3</div></td></tr><tr><td style="font-weight:bold;vertical-align:top;">HTTP_CACHE_CONTROL</td><td style="vertical-align:top;">:</td><td><div>max-age=0</div></td></tr><tr><td style="font-weight:bold;vertical-align:top;">HTTP_CONNECTION</td><td style="vertical-align:top;">:</td><td><div>keep-alive</div></td></tr><tr><td style="font-weight:bold;vertical-align:top;">HTTP_COOKIE</td><td style="vertical-align:top;">:</td><td><div>session_id_admin=127.0.0.1-f84f00c2-fe3b-4c0a-bce9-d5cb7d96d402; session_id_piezas=127.0.0.1-b774e4b6-4506-4dce-a4da-74ac135772a5; session_id_welcome=127.0.0.1-c3ba49c5-4f52-4e53-89d2-ef9a85283ec2; session_id_facturas=127.0.0.1-a17eb876-ef77-4e80-a6b8-8ed3713dcbb3</div></td></tr><tr><td style="font-weight:bold;vertical-align:top;">HTTP_HOST</td><td style="vertical-align:top;">:</td><td><div>127.0.0.1:8000</div></td></tr><tr><td style="font-weight:bold;vertical-align:top;">HTTP_UPGRADE_INSECURE_REQUESTS</td><td style="vertical-align:top;">:</td><td><div>1</div></td></tr><tr><td style="font-weight:bold;vertical-align:top;">HTTP_USER_AGENT</td><td style="vertical-align:top;">:</td><td><div>Mozilla/5.0 (Windows NT 6.1; rv:69.0) Gecko/20100101 Firefox/69.0</div></td></tr><tr><td style="font-weight:bold;vertical-align:top;">PATH_INFO</td><td style="vertical-align:top;">:</td><td><div>/Piezas/estadisticas/estadistica_general</div></td></tr><tr><td style="font-weight:bold;vertical-align:top;">QUERY_STRING</td><td style="vertical-align:top;">:</td><td><div></div></td></tr><tr><td style="font-weight:bold;vertical-align:top;">REMOTE_ADDR</td><td style="vertical-align:top;">:</td><td><div>127.0.0.1</div></td></tr><tr><td style="font-weight:bold;vertical-align:top;">REMOTE_PORT</td><td style="vertical-align:top;">:</td><td><div>1418</div></td></tr><tr><td style="font-weight:bold;vertical-align:top;">REQUEST_METHOD</td><td style="vertical-align:top;">:</td><td><div>GET</div></td></tr><tr><td style="font-weight:bold;vertical-align:top;">SCRIPT_NAME</td><td style="vertical-align:top;">:</td><td><div></div></td></tr><tr><td style="font-weight:bold;vertical-align:top;">SERVER_NAME</td><td style="vertical-align:top;">:</td><td><div>Jorgito-PC</div></td></tr><tr><td style="font-weight:bold;vertical-align:top;">SERVER_PORT</td><td style="vertical-align:top;">:</td><td><div>8000</div></td></tr><tr><td style="font-weight:bold;vertical-align:top;">SERVER_PROTOCOL</td><td style="vertical-align:top;">:</td><td><div>HTTP/1.1</div></td></tr><tr><td style="font-weight:bold;vertical-align:top;">SERVER_SOFTWARE</td><td style="vertical-align:top;">:</td><td><div>Rocket 1.2.6</div></td></tr><tr><td style="font-weight:bold;vertical-align:top;">app_folders</td><td style="vertical-align:top;">:</td><td><div>set([&#x27;D:\\\\Desarrollo\\\\web2py_2.18.5_win\\\\applications\\\\admin&#x27;, &#x27;D:\\\\Desarrollo\\\\web2py_2.18.5_win\\\\applications\\\\web2pybook&#x27;, &#x27;D:\\\\Desarrollo\\\\web2py_2.18.5_win\\\\applications\\\\Piezas&#x27;])</div></td></tr><tr><td style="font-weight:bold;vertical-align:top;">applications_parent</td><td style="vertical-align:top;">:</td><td><div>D:\\Desarrollo\\web2py_2.18.5_win</div></td></tr><tr><td style="font-weight:bold;vertical-align:top;">cmd_args</td><td style="vertical-align:top;">:</td><td><div><table></table></div></td></tr><tr><td style="font-weight:bold;vertical-align:top;">cmd_options</td><td style="vertical-align:top;">:</td><td><div>&lt;Values at 0x282b710: {&#x27;verbose&#x27;: False, &#x27;ip&#x27;: &#x27;127.0.0.1&#x27;, &#x27;debuglevel&#x27;: 30, &#x27;with_scheduler&#x27;: False, &#x27;shutdown_timeout&#x27;: 5, &#x27;taskbar&#x27;: False, &#x27;with_coverage&#x27;: False, &#x27;pid_filename&#x27;: &#x27;httpserver.pid&#x27;, &#x27;maxthreads&#x27;: None, &#x27;softcron&#x27;: False, &#x27;server_name&#x27;: &#x27;Jorgito-PC&#x27;, &#x27;bpython&#x27;: False, &#x27;nogui&#x27;: False, &#x27;port&#x27;: 8000, &#x27;print_errors&#x27;: False, &#x27;extcron&#x27;: False, &#x27;runcron&#x27;: False, &#x27;run_system_tests&#x27;: False, &#x27;test&#x27;: None, &#x27;folder&#x27;: &#x27;D:\\\\Desarrollo\\\\web2py_2.18.5_win&#x27;, &#x27;config&#x27;: &#x27;&#x27;, &#x27;minthreads&#x27;: None, &#x27;shell&#x27;: None, &#x27;run&#x27;: &#x27;&#x27;, &#x27;log_filename&#x27;: &#x27;httpserver.log&#x27;, &#x27;profiler_dir&#x27;: None, &#x27;args&#x27;: [], &#x27;socket_timeout&#x27;: 5, &#x27;ssl_ca_certificate&#x27;: None, &#x27;scheduler&#x27;: None, &#x27;interfaces&#x27;: None, &#x27;ssl_private_key&#x27;: &#x27;&#x27;, &#x27;gae&#x27;: None, &#x27;password&#x27;: &#x27;******&#x27;, &#x27;request_queue_size&#x27;: 5, &#x27;ssl_certificate&#x27;: &#x27;&#x27;, &#x27;cronjob&#x27;: False, &#x27;numthreads&#x27;: None, &#x27;quiet&#x27;: False, &#x27;import_models&#x27;: False, &#x27;timeout&#x27;: 10, &#x27;plain&#x27;: False, &#x27;nobanner&#x27;: False}&gt;</div></td></tr><tr><td style="font-weight:bold;vertical-align:top;">db_sessions</td><td style="vertical-align:top;">:</td><td><div>set([])</div></td></tr><tr><td style="font-weight:bold;vertical-align:top;">debugging</td><td style="vertical-align:top;">:</td><td><div>False</div></td></tr><tr><td style="font-weight:bold;vertical-align:top;">gluon_parent</td><td style="vertical-align:top;">:</td><td><div>D:\\Desarrollo\\web2py_2.18.5_win</div></td></tr><tr><td style="font-weight:bold;vertical-align:top;">http_accept</td><td style="vertical-align:top;">:</td><td><div>text/html,application/xhtml+xml,application/xml;q=0.9,*/*;q=0.8</div></td></tr><tr><td style="font-weight:bold;vertical-align:top;">http_accept_encoding</td><td style="vertical-align:top;">:</td><td><div>gzip, deflate</div></td></tr><tr><td style="font-weight:bold;vertical-align:top;">http_accept_language</td><td style="vertical-align:top;">:</td><td><div>es-MX,es;q=0.8,en-US;q=0.5,en;q=0.3</div></td></tr><tr><td style="font-weight:bold;vertical-align:top;">http_cache_control</td><td style="vertical-align:top;">:</td><td><div>max-age=0</div></td></tr><tr><td style="font-weight:bold;vertical-align:top;">http_connection</td><td style="vertical-align:top;">:</td><td><div>keep-alive</div></td></tr><tr><td style="font-weight:bold;vertical-align:top;">http_cookie</td><td style="vertical-align:top;">:</td><td><div>session_id_admin=127.0.0.1-f84f00c2-fe3b-4c0a-bce9-d5cb7d96d402; session_id_piezas=127.0.0.1-b774e4b6-4506-4dce-a4da-74ac135772a5; session_id_welcome=127.0.0.1-c3ba49c5-4f52-4e53-89d2-ef9a85283ec2; session_id_facturas=127.0.0.1-a17eb876-ef77-4e80-a6b8-8ed3713dcbb3</div></td></tr><tr><td style="font-weight:bold;vertical-align:top;">http_host</td><td style="vertical-align:top;">:</td><td><div>127.0.0.1:8000</div></td></tr><tr><td style="font-weight:bold;vertical-align:top;">http_upgrade_insecure_requests</td><td style="vertical-align:top;">:</td><td><div>1</div></td></tr><tr><td style="font-weight:bold;vertical-align:top;">http_user_agent</td><td style="vertical-align:top;">:</td><td><div>Mozilla/5.0 (Windows NT 6.1; rv:69.0) Gecko/20100101 Firefox/69.0</div></td></tr><tr><td style="font-weight:bold;vertical-align:top;">is_jython</td><td style="vertical-align:top;">:</td><td><div>False</div></td></tr><tr><td style="font-weight:bold;vertical-align:top;">is_py2</td><td style="vertical-align:top;">:</td><td><div>True</div></td></tr><tr><td style="font-weight:bold;vertical-align:top;">is_pypy</td><td style="vertical-align:top;">:</td><td><div>False</div></td></tr><tr><td style="font-weight:bold;vertical-align:top;">is_source</td><td style="vertical-align:top;">:</td><td><div>False</div></td></tr><tr><td style="font-weight:bold;vertical-align:top;">local_hosts</td><td style="vertical-align:top;">:</td><td><div><table><tr><td><div>Jorgito-PC</div></td></tr><tr><td><div>::1</div></td></tr><tr><td><div>::ffff:127.0.0.1</div></td></tr><tr><td><div>127.0.0.1</div></td></tr></table></div></td></tr><tr><td style="font-weight:bold;vertical-align:top;">path_info</td><td style="vertical-align:top;">:</td><td><div>/Piezas/estadisticas/estadistica_general</div></td></tr><tr><td style="font-weight:bold;vertical-align:top;">query_string</td><td style="vertical-align:top;">:</td><td><div></div></td></tr><tr><td style="font-weight:bold;vertical-align:top;">remote_addr</td><td style="vertical-align:top;">:</td><td><div>127.0.0.1</div></td></tr><tr><td style="font-weight:bold;vertical-align:top;">remote_port</td><td style="vertical-align:top;">:</td><td><div>1418</div></td></tr><tr><td style="font-weight:bold;vertical-align:top;">request_method</td><td style="vertical-align:top;">:</td><td><div>GET</div></td></tr><tr><td style="font-weight:bold;vertical-align:top;">request_uri</td><td style="vertical-align:top;">:</td><td><div>/Piezas/estadisticas/estadistica_general</div></td></tr><tr><td style="font-weight:bold;vertical-align:top;">script_name</td><td style="vertical-align:top;">:</td><td><div></div></td></tr><tr><td style="font-weight:bold;vertical-align:top;">server_name</td><td style="vertical-align:top;">:</td><td><div>Jorgito-PC</div></td></tr><tr><td style="font-weight:bold;vertical-align:top;">server_port</td><td style="vertical-align:top;">:</td><td><div>8000</div></td></tr><tr><td style="font-weight:bold;vertical-align:top;">server_protocol</td><td style="vertical-align:top;">:</td><td><div>HTTP/1.1</div></td></tr><tr><td style="font-weight:bold;vertical-align:top;">server_software</td><td style="vertical-align:top;">:</td><td><div>Rocket 1.2.6</div></td></tr><tr><td style="font-weight:bold;vertical-align:top;">web2py_original_uri</td><td style="vertical-align:top;">:</td><td><div>/Piezas/estadisticas/estadistica_general</div></td></tr><tr><td style="font-weight:bold;vertical-align:top;">web2py_path</td><td style="vertical-align:top;">:</td><td><div>D:\\Desarrollo\\web2py_2.18.5_win</div></td></tr><tr><td style="font-weight:bold;vertical-align:top;">web2py_version</td><td style="vertical-align:top;">:</td><td><div>2.18.5-stable+timestamp.2019.04.08.04.22.03</div></td></tr><tr><td style="font-weight:bold;vertical-align:top;">wsgi.errors</td><td style="vertical-align:top;">:</td><td><div>&lt;open file &#x27;&lt;stderr&gt;&#x27;, mode &#x27;w&#x27; at 0x0137D0D0&gt;</div></td></tr><tr><td style="font-weight:bold;vertical-align:top;">wsgi.file_wrapper</td><td style="vertical-align:top;">:</td><td><div>&lt;class wsgiref.util.FileWrapper at 0x0280CB20&gt;</div></td></tr><tr><td style="font-weight:bold;vertical-align:top;">wsgi.input</td><td style="vertical-align:top;">:</td><td><div>&lt;socket._fileobject object at 0x041B97B0&gt;</div></td></tr><tr><td style="font-weight:bold;vertical-align:top;">wsgi.multiprocess</td><td style="vertical-align:top;">:</td><td><div>False</div></td></tr><tr><td style="font-weight:bold;vertical-align:top;">wsgi.multithread</td><td style="vertical-align:top;">:</td><td><div>True</div></td></tr><tr><td style="font-weight:bold;vertical-align:top;">wsgi.run_once</td><td style="vertical-align:top;">:</td><td><div>False</div></td></tr><tr><td style="font-weight:bold;vertical-align:top;">wsgi.url_scheme</td><td style="vertical-align:top;">:</td><td><div>http</div></td></tr><tr><td style="font-weight:bold;vertical-align:top;">wsgi.version</td><td style="vertical-align:top;">:</td><td><div><table><tr><td><div>1</div></td></tr><tr><td><div>0</div></td></tr></table></div></td></tr><tr><td style="font-weight:bold;vertical-align:top;">wsgi_errors</td><td style="vertical-align:top;">:</td><td><div>&lt;open file &#x27;&lt;stderr&gt;&#x27;, mode &#x27;w&#x27; at 0x0137D0D0&gt;</div></td></tr><tr><td style="font-weight:bold;vertical-align:top;">wsgi_file_wrapper</td><td style="vertical-align:top;">:</td><td><div>&lt;class wsgiref.util.FileWrapper at 0x0280CB20&gt;</div></td></tr><tr><td style="font-weight:bold;vertical-align:top;">wsgi_input</td><td style="vertical-align:top;">:</td><td><div>&lt;socket._fileobject object at 0x041B97B0&gt;</div></td></tr><tr><td style="font-weight:bold;vertical-align:top;">wsgi_multiprocess</td><td style="vertical-align:top;">:</td><td><div>False</div></td></tr><tr><td style="font-weight:bold;vertical-align:top;">wsgi_multithread</td><td style="vertical-align:top;">:</td><td><div>True</div></td></tr><tr><td style="font-weight:bold;vertical-align:top;">wsgi_run_once</td><td style="vertical-align:top;">:</td><td><div>False</div></td></tr><tr><td style="font-weight:bold;vertical-align:top;">wsgi_url_scheme</td><td style="vertical-align:top;">:</td><td><div>http</div></td></tr><tr><td style="font-weight:bold;vertical-align:top;">wsgi_version</td><td style="vertical-align:top;">:</td><td><div><table><tr><td><div>1</div></td></tr><tr><td><div>0</div></td></tr></table></div></td></tr></table></div></td></tr><tr><td style="font-weight:bold;vertical-align:top;">extension</td><td style="vertical-align:top;">:</td><td><div>html</div></td></tr><tr><td style="font-weight:bold;vertical-align:top;">folder</td><td style="vertical-align:top;">:</td><td><div>D:\\Desarrollo\\web2py_2.18.5_win\\applications\\Piezas</div></td></tr><tr><td style="font-weight:bold;vertical-align:top;">function</td><td style="vertical-align:top;">:</td><td><div>estadistica_general</div></td></tr><tr><td style="font-weight:bold;vertical-align:top;">global_settings</td><td style="vertical-align:top;">:</td><td><div><table><tr><td style="font-weight:bold;vertical-align:top;">app_folders</td><td style="vertical-align:top;">:</td><td><div>set([&#x27;D:\\\\Desarrollo\\\\web2py_2.18.5_win\\\\applications\\\\admin&#x27;, &#x27;D:\\\\Desarrollo\\\\web2py_2.18.5_win\\\\applications\\\\web2pybook&#x27;, &#x27;D:\\\\Desarrollo\\\\web2py_2.18.5_win\\\\applications\\\\Piezas&#x27;])</div></td></tr><tr><td style="font-weight:bold;vertical-align:top;">applications_parent</td><td style="vertical-align:top;">:</td><td><div>D:\\Desarrollo\\web2py_2.18.5_win</div></td></tr><tr><td style="font-weight:bold;vertical-align:top;">cmd_args</td><td style="vertical-align:top;">:</td><td><div><table></table></div></td></tr><tr><td style="font-weight:bold;vertical-align:top;">cmd_options</td><td style="vertical-align:top;">:</td><td><div>&lt;Values at 0x282b710: {&#x27;verbose&#x27;: False, &#x27;ip&#x27;: &#x27;127.0.0.1&#x27;, &#x27;debuglevel&#x27;: 30, &#x27;with_scheduler&#x27;: False, &#x27;shutdown_timeout&#x27;: 5, &#x27;taskbar&#x27;: False, &#x27;with_coverage&#x27;: False, &#x27;pid_filename&#x27;: &#x27;httpserver.pid&#x27;, &#x27;maxthreads&#x27;: None, &#x27;softcron&#x27;: False, &#x27;server_name&#x27;: &#x27;Jorgito-PC&#x27;, &#x27;bpython&#x27;: False, &#x27;nogui&#x27;: False, &#x27;port&#x27;: 8000, &#x27;print_errors&#x27;: False, &#x27;extcron&#x27;: False, &#x27;runcron&#x27;: False, &#x27;run_system_tests&#x27;: False, &#x27;test&#x27;: None, &#x27;folder&#x27;: &#x27;D:\\\\Desarrollo\\\\web2py_2.18.5_win&#x27;, &#x27;config&#x27;: &#x27;&#x27;, &#x27;minthreads&#x27;: None, &#x27;shell&#x27;: None, &#x27;run&#x27;: &#x27;&#x27;, &#x27;log_filename&#x27;: &#x27;httpserver.log&#x27;, &#x27;profiler_dir&#x27;: None, &#x27;args&#x27;: [], &#x27;socket_timeout&#x27;: 5, &#x27;ssl_ca_certificate&#x27;: None, &#x27;scheduler&#x27;: None, &#x27;interfaces&#x27;: None, &#x27;ssl_private_key&#x27;: &#x27;&#x27;, &#x27;gae&#x27;: None, &#x27;password&#x27;: &#x27;******&#x27;, &#x27;request_queue_size&#x27;: 5, &#x27;ssl_certificate&#x27;: &#x27;&#x27;, &#x27;cronjob&#x27;: False, &#x27;numthreads&#x27;: None, &#x27;quiet&#x27;: False, &#x27;import_models&#x27;: False, &#x27;timeout&#x27;: 10, &#x27;plain&#x27;: False, &#x27;nobanner&#x27;: False}&gt;</div></td></tr><tr><td style="font-weight:bold;vertical-align:top;">db_sessions</td><td style="vertical-align:top;">:</td><td><div>set([])</div></td></tr><tr><td style="font-weight:bold;vertical-align:top;">debugging</td><td style="vertical-align:top;">:</td><td><div>False</div></td></tr><tr><td style="font-weight:bold;vertical-align:top;">gluon_parent</td><td style="vertical-align:top;">:</td><td><div>D:\\Desarrollo\\web2py_2.18.5_win</div></td></tr><tr><td style="font-weight:bold;vertical-align:top;">is_jython</td><td style="vertical-align:top;">:</td><td><div>False</div></td></tr><tr><td style="font-weight:bold;vertical-align:top;">is_py2</td><td style="vertical-align:top;">:</td><td><div>True</div></td></tr><tr><td style="font-weight:bold;vertical-align:top;">is_pypy</td><td style="vertical-align:top;">:</td><td><div>False</div></td></tr><tr><td style="font-weight:bold;vertical-align:top;">is_source</td><td style="vertical-align:top;">:</td><td><div>False</div></td></tr><tr><td style="font-weight:bold;vertical-align:top;">local_hosts</td><td style="vertical-align:top;">:</td><td><div><table><tr><td><div>Jorgito-PC</div></td></tr><tr><td><div>::1</div></td></tr><tr><td><div>::ffff:127.0.0.1</div></td></tr><tr><td><div>127.0.0.1</div></td></tr></table></div></td></tr><tr><td style="font-weight:bold;vertical-align:top;">web2py_version</td><td style="vertical-align:top;">:</td><td><div>2.18.5-stable+timestamp.2019.04.08.04.22.03</div></td></tr></table></div></td></tr><tr><td style="font-weight:bold;vertical-align:top;">is_https</td><td style="vertical-align:top;">:</td><td><div>False</div></td></tr><tr><td style="font-weight:bold;vertical-align:top;">is_local</td><td style="vertical-align:top;">:</td><td><div>True</div></td></tr><tr><td style="font-weight:bold;vertical-align:top;">is_restful</td><td style="vertical-align:top;">:</td><td><div>False</div></td></tr><tr><td style="font-weight:bold;vertical-align:top;">is_scheduler</td><td style="vertical-align:top;">:</td><td><div>False</div></td></tr><tr><td style="font-weight:bold;vertical-align:top;">is_shell</td><td style="vertical-align:top;">:</td><td><div>False</div></td></tr><tr><td style="font-weight:bold;vertical-align:top;">method</td><td style="vertical-align:top;">:</td><td><div>GET</div></td></tr><tr><td style="font-weight:bold;vertical-align:top;">now</td><td style="vertical-align:top;">:</td><td><div>datetime.datetime(2020, 3, 9, 10, 41, 41, 276000)</div></td></tr><tr><td style="font-weight:bold;vertical-align:top;">url</td><td style="vertical-align:top;">:</td><td><div>/Piezas/estadisticas/estadistica_general</div></td></tr><tr><td style="font-weight:bold;vertical-align:top;">utcnow</td><td style="vertical-align:top;">:</td><td><div>datetime.datetime(2020, 3, 9, 1, 11, 41, 276000)</div></td></tr><tr><td style="font-weight:bold;vertical-align:top;">wsgi</td><td style="vertical-align:top;">:</td><td><div>&lt;gluon.main.LazyWSGI object at 0x037F69D0&gt;</div></td></tr></table></div>'
tRp60
sS'frames'
p61
(lp62
(dp63
S'file'
p64
S'D:\\Desarrollo\\web2py_2.18.5_win\\gluon\\restricted.py'
p65
sS'dump'
p66
(dp67
S'environment'
p68
S"{'A': <class 'gluon.html.A'>, 'ANY_OF': <class 'pydal.validators.ANY_OF'>, 'ASSIGNJS': <function ASSIGNJS>, 'AppConfig': <function AppConfig>, 'Auth': <class 'gluon.tools.Auth'>, 'B': <class 'gluon.html.B'>, 'BEAUTIFY': <class 'gluon.html.BEAUTIFY'>, 'BODY': <class 'gluon.html.BODY'>, 'BR': <class 'gluon.html.BR'>, 'BUTTON': <class 'gluon.html.BUTTON'>, ...}"
p69
sS'ccode'
p70
S'<code object <module> at 041D3650, file "D:\\Desa...ions\\Piezas\\controllers/estadisticas.py", line 1>'
p71
ssS'lnum'
p72
I219
sS'lines'
p73
(dp74
I214
S'    if environment is None:'
p75
sI215
S'        environment = {}'
p76
sI216
S"    environment['__file__'] = layer"
p77
sI217
S"    environment['__name__'] = '__restricted__'"
p78
sI218
S'    try:'
p79
sI219
S'        exec(ccode, environment)'
p80
sI220
S'    except HTTP:'
p81
sI221
S'        raise'
p82
sI222
S'    except RestrictedError:'
p83
sI223
S'        # do not encapsulate (obfuscate) the original RestrictedError'
p84
ssS'call'
p85
S'(ccode=<code object <module> at 041D3650, file "D:\\Desa...ions\\Piezas\\controllers/estadisticas.py", line 1>, environment={\'A\': <class \'gluon.html.A\'>, \'ANY_OF\': <class \'pydal.validators.ANY_OF\'>, \'ASSIGNJS\': <function ASSIGNJS>, \'AppConfig\': <function AppConfig>, \'Auth\': <class \'gluon.tools.Auth\'>, \'B\': <class \'gluon.html.B\'>, \'BEAUTIFY\': <class \'gluon.html.BEAUTIFY\'>, \'BODY\': <class \'gluon.html.BODY\'>, \'BR\': <class \'gluon.html.BR\'>, \'BUTTON\': <class \'gluon.html.BUTTON\'>, ...}, layer=r\'D:\\Desarrollo\\web2py_2.18.5_win\\applications\\Piezas\\controllers/estadisticas.py\', scode=<code object <module> at 041D3650, file "D:\\Desa...ions\\Piezas\\controllers/estadisticas.py", line 1>)'
p86
sS'func'
p87
S'restricted'
p88
sa(dp89
g64
S'D:\\Desarrollo\\web2py_2.18.5_win\\applications\\Piezas\\controllers\\estadisticas.py'
p90
sg66
(dp91
sg72
I115
sg73
(dp92
I104
S''
sI105
S'        for j in rows:'
p93
sI106
S'            cantidad += j.cantidad'
p94
sI107
S''
sI108
S'        valores.append(cantidad)'
p95
sI109
S''
sI110
S'    return valores'
p96
sI111
S''
sI112
S''
sI113
S''
ssg85
S'()'
p97
sg87
S'<module>'
p98
sa(dp99
g64
S'D:\\Desarrollo\\web2py_2.18.5_win\\gluon\\globals.py'
p100
sg66
(dp101
S'self'
p102
S'undefined'
p103
sS'f'
S'<function estadistica_general>'
p104
ssg72
I421
sg73
(dp105
I416
S"        self.flash = ''            # used by the default view layout"
p106
sI417
S'        self.meta = Storage()      # used by web2py_ajax.html'
p107
sI418
S'        self.menu = []             # used by the default view layout'
p108
sI419
S'        self.files = []            # used by web2py_ajax.html'
p109
sI420
S'        self._vars = None'
p110
sI421
S'        self._caller = lambda f: f()'
p111
sI422
S'        self._view_environment = None'
p112
sI423
S'        self._custom_commit = None'
p113
sI424
S'        self._custom_rollback = None'
p114
sI425
S"        self.generic_patterns = ['*']"
p115
ssg85
S'(f=<function estadistica_general>)'
p116
sg87
S'<lambda>'
p117
sa(dp118
g64
S'D:\\Desarrollo\\web2py_2.18.5_win\\applications\\Piezas\\controllers\\estadisticas.py'
p119
sg66
(dp120
S'test'
p121
g103
sS'global db'
p122
S'<DAL uri="sqlite://storage.sqlite">'
p123
sS'builtinsum'
p124
S'<built-in function sum>'
p125
sS').select'
p126
g103
sS').first'
p127
g103
ssg72
I55
sg73
(dp128
I50
S''
sI51
S'    valores_ventas = __obtener_estadisticas_general_ventas(year)'
p129
sI52
S'    valores_entradas = __obtener_estadisticas_general_entradas(year)'
p130
sI53
S''
sI54
S'    test = db((db.pieza_entrada.fecha_entrada.month() == 3) & (db.pieza_entrada.fecha_entrada.year('
p131
sI55
S'        ) == year)).select(db.pieza_entrada.fecha_entrada, db.pieza_entrada.codigo, db.pieza_entrada.cantidad, sum, groupby=db.pieza_entrada.fecha_entrada)'
p132
sI56
S'    return locals()'
p133
sI57
S''
sI58
S''
sI59
S'def __obtener_estadisticas_general_entradas(year):'
p134
ssg85
S'()'
p135
sg87
S'estadistica_general'
p136
sa(dp137
g64
S'D:\\Desarrollo\\web2py_2.18.5_win\\gluon\\packages\\dal\\pydal\\objects.py'
p138
sg66
(dp139
S'self.query'
p140
S'<Query ((web2py_extract(\'month\', "pieza_entrada"...year\', "pieza_entrada"."fecha_entrada") = 2020))>'
p141
sS'adapter.select'
p142
S'<bound method SQLite.select of <pydal.adapters.sqlite.SQLite object>>'
p143
sS'fields'
p144
S'[<pydal.objects.Field object>, <pydal.objects.Field object>, <pydal.objects.Field object>, <built-in function sum>]'
p145
sS'adapter'
p146
S'<pydal.adapters.sqlite.SQLite object>'
p147
sS'attributes'
p148
S"{'groupby': <pydal.objects.Field object>}"
p149
sS'self'
p150
S'<Set ((web2py_extract(\'month\', "pieza_entrada"."...year\', "pieza_entrada"."fecha_entrada") = 2020))>'
p151
ssg72
I2395
sg73
(dp152
I2390
S"                                    attributes.get('join', None),"
p153
sI2391
S"                                    attributes.get('left', None),"
p154
sI2392
S"                                    attributes.get('orderby', None),"
p155
sI2393
S"                                    attributes.get('groupby', None))"
p156
sI2394
S'        fields = adapter.expand_all(fields, tablenames)'
p157
sI2395
S'        return adapter.select(self.query, fields, attributes)'
p158
sI2396
S''
sI2397
S'    def iterselect(self, *fields, **attributes):'
p159
sI2398
S'        adapter = self.db._adapter'
p160
sI2399
S'        tablenames = adapter.tables(self.query,'
p161
ssg85
S'(self=<Set ((web2py_extract(\'month\', "pieza_entrada"."...year\', "pieza_entrada"."fecha_entrada") = 2020))>, *fields=[<pydal.objects.Field object>, <pydal.objects.Field object>, <pydal.objects.Field object>, <built-in function sum>], **attributes={\'groupby\': <pydal.objects.Field object>})'
p162
sg87
S'select'
p163
sa(dp164
g64
S'D:\\Desarrollo\\web2py_2.18.5_win\\gluon\\packages\\dal\\pydal\\adapters\\sqlite.py'
p165
sg66
(dp166
S'fields'
p167
S'[<pydal.objects.Field object>, <pydal.objects.Field object>, <pydal.objects.Field object>, <built-in function sum>]'
p168
sS'self'
p169
S'<pydal.adapters.sqlite.SQLite object>'
p170
sS').select'
p171
S'<bound method SQLite.select of <pydal.adapters.sqlite.SQLite object>>'
p172
sS'attributes'
p173
S"{'groupby': <pydal.objects.Field object>}"
p174
sS'query'
p175
S'<Query ((web2py_extract(\'month\', "pieza_entrada"...year\', "pieza_entrada"."fecha_entrada") = 2020))>'
p176
sS'builtinsuper'
p177
S"<type 'super'>"
p178
sS'global SQLite'
p179
S"<class 'pydal.adapters.sqlite.SQLite'>"
p180
ssg72
I82
sg73
(dp181
I77
S"            self.execute('PRAGMA foreign_keys=ON;')"
p182
sI78
S''
sI79
S'    def select(self, query, fields, attributes):'
p183
sI80
S"        if attributes.get('for_update', False) and 'cache' not in attributes:"
p184
sI81
S"            self.execute('BEGIN IMMEDIATE TRANSACTION;')"
p185
sI82
S'        return super(SQLite, self).select(query, fields, attributes)'
p186
sI83
S''
sI84
S'    def delete(self, table, query):'
p187
sI85
S'        db = self.db'
p188
sI86
S'        deleted = [x[table._id.name] for x in db(query).select(table._id)]'
p189
ssg85
S'(self=<pydal.adapters.sqlite.SQLite object>, query=<Query ((web2py_extract(\'month\', "pieza_entrada"...year\', "pieza_entrada"."fecha_entrada") = 2020))>, fields=[<pydal.objects.Field object>, <pydal.objects.Field object>, <pydal.objects.Field object>, <built-in function sum>], attributes={\'groupby\': <pydal.objects.Field object>})'
p190
sg87
g163
sa(dp191
g64
S'D:\\Desarrollo\\web2py_2.18.5_win\\gluon\\packages\\dal\\pydal\\adapters\\base.py'
p192
sg66
(dp193
S'fields'
p194
S'[<pydal.objects.Field object>, <pydal.objects.Field object>, <pydal.objects.Field object>, <built-in function sum>]'
p195
sS'self'
p196
S'<pydal.adapters.sqlite.SQLite object>'
p197
sS'self._select_wcols'
p198
S'<bound method SQLite._select_wcols of <pydal.adapters.sqlite.SQLite object>>'
p199
sS'sql'
p200
g103
sS'query'
p201
S'<Query ((web2py_extract(\'month\', "pieza_entrada"...year\', "pieza_entrada"."fecha_entrada") = 2020))>'
p202
sS'colnames'
p203
g103
sS'attributes'
p204
S"{'groupby': <pydal.objects.Field object>}"
p205
ssg72
I758
sg73
(dp206
I753
S'            time_expire)'
p207
sI754
S'        ret._restore_fields(fields)'
p208
sI755
S'        return ret'
p209
sI756
S''
sI757
S'    def select(self, query, fields, attributes):'
p210
sI758
S'        colnames, sql = self._select_wcols(query, fields, **attributes)'
p211
sI759
S"        cache = attributes.get('cache', None)"
p212
sI760
S"        if cache and attributes.get('cacheable', False):"
p213
sI761
S'            return self._cached_select('
p214
sI762
S'                cache, sql, fields, attributes, colnames)'
p215
ssg85
S'(self=<pydal.adapters.sqlite.SQLite object>, query=<Query ((web2py_extract(\'month\', "pieza_entrada"...year\', "pieza_entrada"."fecha_entrada") = 2020))>, fields=[<pydal.objects.Field object>, <pydal.objects.Field object>, <pydal.objects.Field object>, <built-in function sum>], attributes={\'groupby\': <pydal.objects.Field object>})'
p216
sg87
g163
sa(dp217
g64
S'D:\\Desarrollo\\web2py_2.18.5_win\\gluon\\packages\\dal\\pydal\\adapters\\base.py'
p218
sg66
(dp219
S'x'
S'<built-in function sum>'
p220
sS'fields'
p221
S'[<pydal.objects.Field object>, <pydal.objects.Field object>, <pydal.objects.Field object>, <built-in function sum>]'
p222
sS'self'
p223
S'<pydal.adapters.sqlite.SQLite object>'
p224
sS'query_env'
p225
S"{'current_scope': ['pieza_entrada'], 'parent_scope': []}"
p226
sS'self._geoexpand'
p227
S'<bound method SQLite._geoexpand of <pydal.adapters.sqlite.SQLite object>>'
p228
sS'sql_fields'
p229
g103
ssg72
I633
sg73
(dp230
I628
S'        current_scope = outer_scoped + list(tablemap)'
p231
sI629
S'        query_env = dict(current_scope=current_scope,'
p232
sI630
S'            parent_scope=outer_scoped)'
p233
sI631
S'        #: prepare columns and expand fields'
p234
sI632
S'        colnames = [self._colexpand(x, query_env) for x in fields]'
p235
sI633
S"        sql_fields = ', '.join(self._geoexpand(x, query_env) for x in fields)"
p236
sI634
S'        table_alias = lambda name: tablemap[name].query_name(outer_scoped)[0]'
p237
sI635
S'        if join and not left:'
p238
sI636
S'            cross_joins = iexcluded + list(itables_to_merge)'
p239
sI637
S'            tokens = [table_alias(cross_joins[0])]'
p240
ssg85
S'(self=<pydal.adapters.sqlite.SQLite object>, query=<Query ((web2py_extract(\'month\', "pieza_entrada"...year\', "pieza_entrada"."fecha_entrada") = 2020))>, fields=[<pydal.objects.Field object>, <pydal.objects.Field object>, <pydal.objects.Field object>, <built-in function sum>], left=False, join=False, distinct=False, orderby=False, groupby=<pydal.objects.Field object>, having=False, limitby=False, orderby_on_limitby=True, for_update=False, outer_scoped=[], required=None, cache=None, cacheable=None, processor=None)'
p241
sg87
S'_select_wcols'
p242
sa(dp243
g64
S'D:\\Desarrollo\\web2py_2.18.5_win\\gluon\\packages\\dal\\pydal\\adapters\\base.py'
p244
sg66
(dp245
S'x'
S'<built-in function sum>'
p246
sS'fields'
p247
g103
sS'self'
p248
S'<pydal.adapters.sqlite.SQLite object>'
p249
sS'query_env'
p250
S"{'current_scope': ['pieza_entrada'], 'parent_scope': []}"
p251
sS'self._geoexpand'
p252
S'<bound method SQLite._geoexpand of <pydal.adapters.sqlite.SQLite object>>'
p253
sS'sql_fields'
p254
g103
ssg72
I633
sg73
(dp255
I628
S'        current_scope = outer_scoped + list(tablemap)'
p256
sI629
S'        query_env = dict(current_scope=current_scope,'
p257
sI630
S'            parent_scope=outer_scoped)'
p258
sI631
S'        #: prepare columns and expand fields'
p259
sI632
S'        colnames = [self._colexpand(x, query_env) for x in fields]'
p260
sI633
S"        sql_fields = ', '.join(self._geoexpand(x, query_env) for x in fields)"
p261
sI634
S'        table_alias = lambda name: tablemap[name].query_name(outer_scoped)[0]'
p262
sI635
S'        if join and not left:'
p263
sI636
S'            cross_joins = iexcluded + list(itables_to_merge)'
p264
sI637
S'            tokens = [table_alias(cross_joins[0])]'
p265
ssg85
S'((x=<built-in function sum>,))'
p266
sg87
S'<genexpr>'
p267
sa(dp268
g64
S'D:\\Desarrollo\\web2py_2.18.5_win\\gluon\\packages\\dal\\pydal\\adapters\\base.py'
p269
sg66
(dp270
S'field.type'
p271
g103
sS'builtinisinstance'
p272
S'<built-in function isinstance>'
p273
sS'builtinstr'
p274
S"<type 'str'>"
p275
sS'global Field'
p276
S"<class 'pydal.objects.Field'>"
p277
sS'field'
p278
S'<built-in function sum>'
p279
ssg72
I551
sg73
(dp280
I546
S''
sI547
S'    def _colexpand(self, field, query_env):'
p281
sI548
S'        return self.expand(field, colnames=True, query_env=query_env)'
p282
sI549
S''
sI550
S'    def _geoexpand(self, field, query_env):'
p283
sI551
S"        if isinstance(field.type, str) and field.type.startswith('geo') and \\"
p284
sI552
S'           isinstance(field, Field):'
p285
sI553
S'            field = field.st_astext()'
p286
sI554
S'        return self.expand(field, query_env=query_env)'
p287
sI555
S''
ssg85
S"(self=<pydal.adapters.sqlite.SQLite object>, field=<built-in function sum>, query_env={'current_scope': ['pieza_entrada'], 'parent_scope': []})"
p288
sg87
S'_geoexpand'
p289
sasS'pyver'
p290
S'Python 2.7.9: D:\\Desarrollo\\web2py_2.18.5_win\\web2py.exe (prefix: )'
p291
sS'session'
p292
g59
(S's\x1f\x01\x00\x00<div><table><tr><td style="font-weight:bold;vertical-align:top;">flash</td><td style="vertical-align:top;">:</td><td><div>None</div></td></tr><tr><td style="font-weight:bold;vertical-align:top;">id_pieza</td><td style="vertical-align:top;">:</td><td><div>1L</div></td></tr></table></div>'
tRp293
sS'etype'
p294
S"<type 'exceptions.AttributeError'>"
p295
sS'date'
p296
S'Mon Mar 09 10:41:43 2020'
p297
sS'response'
p298
g59
(S's@(\x00\x00<div><table><tr><td style="font-weight:bold;vertical-align:top;">body</td><td style="vertical-align:top;">:</td><td><div>&lt;cStringIO.StringO object at 0x037F6D80&gt;</div></td></tr><tr><td style="font-weight:bold;vertical-align:top;">cookies</td><td style="vertical-align:top;">:</td><td><div><table><tr><td style="font-weight:bold;vertical-align:top;">session_id_piezas</td><td style="vertical-align:top;">:</td><td><div>127.0.0.1-b774e4b6-4506-4dce-a4da-74ac135772a5<table><tr><td style="font-weight:bold;vertical-align:top;">comment</td><td style="vertical-align:top;">:</td><td><div></div></td></tr><tr><td style="font-weight:bold;vertical-align:top;">domain</td><td style="vertical-align:top;">:</td><td><div></div></td></tr><tr><td style="font-weight:bold;vertical-align:top;">expires</td><td style="vertical-align:top;">:</td><td><div></div></td></tr><tr><td style="font-weight:bold;vertical-align:top;">httponly</td><td style="vertical-align:top;">:</td><td><div></div></td></tr><tr><td style="font-weight:bold;vertical-align:top;">max-age</td><td style="vertical-align:top;">:</td><td><div></div></td></tr><tr><td style="font-weight:bold;vertical-align:top;">path</td><td style="vertical-align:top;">:</td><td><div>/</div></td></tr><tr><td style="font-weight:bold;vertical-align:top;">samesite</td><td style="vertical-align:top;">:</td><td><div></div></td></tr><tr><td style="font-weight:bold;vertical-align:top;">secure</td><td style="vertical-align:top;">:</td><td><div></div></td></tr><tr><td style="font-weight:bold;vertical-align:top;">version</td><td style="vertical-align:top;">:</td><td><div></div></td></tr></table></div></td></tr></table></div></td></tr><tr><td style="font-weight:bold;vertical-align:top;">delimiters</td><td style="vertical-align:top;">:</td><td><div><table><tr><td><div>{{</div></td></tr><tr><td><div>}}</div></td></tr></table></div></td></tr><tr><td style="font-weight:bold;vertical-align:top;">files</td><td style="vertical-align:top;">:</td><td><div><table></table></div></td></tr><tr><td style="font-weight:bold;vertical-align:top;">flash</td><td style="vertical-align:top;">:</td><td><div></div></td></tr><tr><td style="font-weight:bold;vertical-align:top;">form_label_separator</td><td style="vertical-align:top;">:</td><td><div></div></td></tr><tr><td style="font-weight:bold;vertical-align:top;">formstyle</td><td style="vertical-align:top;">:</td><td><div>bootstrap4_inline</div></td></tr><tr><td style="font-weight:bold;vertical-align:top;">generic_patterns</td><td style="vertical-align:top;">:</td><td><div><table><tr><td><div>*</div></td></tr></table></div></td></tr><tr><td style="font-weight:bold;vertical-align:top;">google_analytics_id</td><td style="vertical-align:top;">:</td><td><div>None</div></td></tr><tr><td style="font-weight:bold;vertical-align:top;">headers</td><td style="vertical-align:top;">:</td><td><div><table><tr><td style="font-weight:bold;vertical-align:top;">X-Powered-By</td><td style="vertical-align:top;">:</td><td><div>web2py</div></td></tr></table></div></td></tr><tr><td style="font-weight:bold;vertical-align:top;">menu</td><td style="vertical-align:top;">:</td><td><div><table><tr><td><div><table><tr><td><div>Inicio</div></td></tr><tr><td><div>False</div></td></tr><tr><td><div>/Piezas</div></td></tr><tr><td><div><table></table></div></td></tr></table></div></td></tr><tr><td><div><table><tr><td><div>Piezas</div></td></tr><tr><td><div>False</div></td></tr><tr><td><div>pieza</div></td></tr><tr><td><div><table><tr><td><div><table><tr><td><div>A\xc3\xb1adir pieza</div></td></tr><tr><td><div>False</div></td></tr><tr><td><div>/Piezas/pieza/crear</div></td></tr></table></div></td></tr><tr><td><div><table><tr><td><div>Administrar pieza</div></td></tr><tr><td><div>False</div></td></tr><tr><td><div>/Piezas/pieza/administrar</div></td></tr></table></div></td></tr></table></div></td></tr></table></div></td></tr><tr><td><div><table><tr><td><div>Proveedores</div></td></tr><tr><td><div>False</div></td></tr><tr><td><div>proveedor</div></td></tr><tr><td><div><table><tr><td><div><table><tr><td><div>A\xc3\xb1adir proveedor</div></td></tr><tr><td><div>False</div></td></tr><tr><td><div>/Piezas/proveedor/crear</div></td></tr></table></div></td></tr><tr><td><div><table><tr><td><div>Administrar proveedor</div></td></tr><tr><td><div>False</div></td></tr><tr><td><div>/Piezas/proveedor/administrar</div></td></tr></table></div></td></tr></table></div></td></tr></table></div></td></tr><tr><td><div><table><tr><td><div>Ventas</div></td></tr><tr><td><div>False</div></td></tr><tr><td><div>venta</div></td></tr><tr><td><div><table><tr><td><div><table><tr><td><div>Realizar venta</div></td></tr><tr><td><div>False</div></td></tr><tr><td><div>/Piezas/venta/seleccionar_pieza</div></td></tr></table></div></td></tr><tr><td><div><table><tr><td><div>Administrar ventas</div></td></tr><tr><td><div>False</div></td></tr><tr><td><div>/Piezas/venta/administrar</div></td></tr></table></div></td></tr></table></div></td></tr></table></div></td></tr><tr><td><div><table><tr><td><div>Estad\xc3\xadsticas</div></td></tr><tr><td><div>False</div></td></tr><tr><td><div>estadisticas</div></td></tr><tr><td><div><table><tr><td><div><table><tr><td><div>Por Pieza</div></td></tr><tr><td><div>False</div></td></tr><tr><td><div>/Piezas/estadisticas/piezas</div></td></tr></table></div></td></tr><tr><td><div><table><tr><td><div>General</div></td></tr><tr><td><div>False</div></td></tr><tr><td><div>/Piezas/estadisticas/estadistica_general</div></td></tr></table></div></td></tr></table></div></td></tr></table></div></td></tr><tr><td><div><table><tr><td><div>Base de datos</div></td></tr><tr><td><div>False</div></td></tr><tr><td><div>base_datos</div></td></tr><tr><td><div><table><tr><td><div><table><tr><td><div>Salvar base de datos</div></td></tr><tr><td><div>False</div></td></tr><tr><td><div>/Piezas/base_datos/salvar</div></td></tr></table></div></td></tr><tr><td><div><table><tr><td><div>Cargar salva</div></td></tr><tr><td><div>False</div></td></tr><tr><td><div>/Piezas/base_datos/cargar</div></td></tr></table></div></td></tr></table></div></td></tr></table></div></td></tr><tr><td><div><table><tr><td><div>Eliminar todo</div></td></tr><tr><td><div>False</div></td></tr><tr><td><div>/Piezas/base_datos/eliminar</div></td></tr></table></div></td></tr></table></div></td></tr><tr><td style="font-weight:bold;vertical-align:top;">meta</td><td style="vertical-align:top;">:</td><td><div><table><tr><td style="font-weight:bold;vertical-align:top;">author</td><td style="vertical-align:top;">:</td><td><div>Your Name &lt;you@example.com&gt;</div></td></tr><tr><td style="font-weight:bold;vertical-align:top;">description</td><td style="vertical-align:top;">:</td><td><div>a cool new app</div></td></tr><tr><td style="font-weight:bold;vertical-align:top;">generator</td><td style="vertical-align:top;">:</td><td><div>Web2py Web Framework</div></td></tr><tr><td style="font-weight:bold;vertical-align:top;">keywords</td><td style="vertical-align:top;">:</td><td><div><table><tr><td><div>web2py</div></td></tr><tr><td><div>python</div></td></tr><tr><td><div>framework</div></td></tr></table></div></td></tr></table></div></td></tr><tr><td style="font-weight:bold;vertical-align:top;">models_to_run</td><td style="vertical-align:top;">:</td><td><div><table><tr><td><div>^\\w+\\.py$</div></td></tr><tr><td><div>^estadisticas/\\w+\\.py$</div></td></tr><tr><td><div>^estadisticas/estadistica_general/\\w+\\.py$</div></td></tr></table></div></td></tr><tr><td style="font-weight:bold;vertical-align:top;">postprocessing</td><td style="vertical-align:top;">:</td><td><div><table></table></div></td></tr><tr><td style="font-weight:bold;vertical-align:top;">session_client</td><td style="vertical-align:top;">:</td><td><div>127.0.0.1</div></td></tr><tr><td style="font-weight:bold;vertical-align:top;">session_cookie_compression_level</td><td style="vertical-align:top;">:</td><td><div>None</div></td></tr><tr><td style="font-weight:bold;vertical-align:top;">session_cookie_expires</td><td style="vertical-align:top;">:</td><td><div>None</div></td></tr><tr><td style="font-weight:bold;vertical-align:top;">session_data_name</td><td style="vertical-align:top;">:</td><td><div>session_data_piezas</div></td></tr><tr><td style="font-weight:bold;vertical-align:top;">session_file</td><td style="vertical-align:top;">:</td><td><div>&lt;open file &#x27;D:\\\\Desarrollo\\\\web2py_2.18.5_win\\\\applications\\\\Piezas\\\\sessions\\\\0f5\\\\119\\\\127.0.0.1-b774e4b6-4506-4dce-a4da-74ac135772a5&#x27;, mode &#x27;rb+&#x27; at 0x042CF5A0&gt;</div></td></tr><tr><td style="font-weight:bold;vertical-align:top;">session_filename</td><td style="vertical-align:top;">:</td><td><div>D:\\Desarrollo\\web2py_2.18.5_win\\applications\\Piezas\\sessions\\127.0.0.1-b774e4b6-4506-4dce-a4da-74ac135772a5</div></td></tr><tr><td style="font-weight:bold;vertical-align:top;">session_hash</td><td style="vertical-align:top;">:</td><td><div>d5798fa276550d7b35b4f85ab42fe817</div></td></tr><tr><td style="font-weight:bold;vertical-align:top;">session_id</td><td style="vertical-align:top;">:</td><td><div>127.0.0.1-b774e4b6-4506-4dce-a4da-74ac135772a5</div></td></tr><tr><td style="font-weight:bold;vertical-align:top;">session_id_name</td><td style="vertical-align:top;">:</td><td><div>session_id_piezas</div></td></tr><tr><td style="font-weight:bold;vertical-align:top;">session_locked</td><td style="vertical-align:top;">:</td><td><div>True</div></td></tr><tr><td style="font-weight:bold;vertical-align:top;">session_masterapp</td><td style="vertical-align:top;">:</td><td><div>Piezas</div></td></tr><tr><td style="font-weight:bold;vertical-align:top;">session_new</td><td style="vertical-align:top;">:</td><td><div>False</div></td></tr><tr><td style="font-weight:bold;vertical-align:top;">session_storage_type</td><td style="vertical-align:top;">:</td><td><div>file</div></td></tr><tr><td style="font-weight:bold;vertical-align:top;">show_toolbar</td><td style="vertical-align:top;">:</td><td><div>False</div></td></tr><tr><td style="font-weight:bold;vertical-align:top;">status</td><td style="vertical-align:top;">:</td><td><div>200</div></td></tr><tr><td style="font-weight:bold;vertical-align:top;">view</td><td style="vertical-align:top;">:</td><td><div>estadisticas/estadistica_general.html</div></td></tr></table></div>'
tRp299
sS'locals'
p300
(dp301
S'query_env'
p302
S"{'current_scope': ['pieza_entrada'], 'parent_scope': []}"
p303
sS'self'
p304
S'<pydal.adapters.sqlite.SQLite object>'
p305
sS'field'
p306
S'<built-in function sum>'
p307
sssS'traceback'
p308
S'Traceback (most recent call last):\n  File "D:\\Desarrollo\\web2py_2.18.5_win\\gluon\\restricted.py", line 219, in restricted\n    exec(ccode, environment)\n  File "D:\\Desarrollo\\web2py_2.18.5_win\\applications\\Piezas\\controllers/estadisticas.py", line 115, in <module>\n  File "D:\\Desarrollo\\web2py_2.18.5_win\\gluon\\globals.py", line 421, in <lambda>\n    self._caller = lambda f: f()\n  File "D:\\Desarrollo\\web2py_2.18.5_win\\applications\\Piezas\\controllers/estadisticas.py", line 55, in estadistica_general\n    ) == year)).select(db.pieza_entrada.fecha_entrada, db.pieza_entrada.codigo, db.pieza_entrada.cantidad, sum, groupby=db.pieza_entrada.fecha_entrada)\n  File "D:\\Desarrollo\\web2py_2.18.5_win\\gluon\\packages\\dal\\pydal\\objects.py", line 2395, in select\n    return adapter.select(self.query, fields, attributes)\n  File "D:\\Desarrollo\\web2py_2.18.5_win\\gluon\\packages\\dal\\pydal\\adapters\\sqlite.py", line 82, in select\n    return super(SQLite, self).select(query, fields, attributes)\n  File "D:\\Desarrollo\\web2py_2.18.5_win\\gluon\\packages\\dal\\pydal\\adapters\\base.py", line 758, in select\n    colnames, sql = self._select_wcols(query, fields, **attributes)\n  File "D:\\Desarrollo\\web2py_2.18.5_win\\gluon\\packages\\dal\\pydal\\adapters\\base.py", line 633, in _select_wcols\n    sql_fields = \', \'.join(self._geoexpand(x, query_env) for x in fields)\n  File "D:\\Desarrollo\\web2py_2.18.5_win\\gluon\\packages\\dal\\pydal\\adapters\\base.py", line 633, in <genexpr>\n    sql_fields = \', \'.join(self._geoexpand(x, query_env) for x in fields)\n  File "D:\\Desarrollo\\web2py_2.18.5_win\\gluon\\packages\\dal\\pydal\\adapters\\base.py", line 551, in _geoexpand\n    if isinstance(field.type, str) and field.type.startswith(\'geo\') and \\\nAttributeError: \'builtin_function_or_method\' object has no attribute \'type\'\n'
p309
s.