(dp1
S'output'
p2
S"<type 'exceptions.KeyError'> 3"
p3
sS'layer'
p4
S'C:\\Users\\Jorgito\\Desktop\\web2py_2.18.5_win\\applications\\Piezas\\controllers/estadisticas.py'
p5
sS'code'
p6
S'<code object <module> at 04532BF0, file "C:\\Users\\Jorgito\\Desktop\\web2py_2.18.5_win\\applications\\Piezas\\controllers/estadisticas.py", line 1>'
p7
sS'snapshot'
p8
(dp9
S'exception'
p10
(dp11
S'__getslice__'
p12
S"<method-wrapper '__getslice__' of exceptions.KeyError object>"
p13
sS'__str__'
p14
S"<method-wrapper '__str__' of exceptions.KeyError object>"
p15
sS'__reduce__'
p16
S'<built-in method __reduce__ of exceptions.KeyError object>'
p17
sS'__dict__'
p18
S'{}'
p19
sS'message'
p20
S'3'
sS'__sizeof__'
p21
S'<built-in method __sizeof__ of exceptions.KeyError object>'
p22
sS'__init__'
p23
S"<method-wrapper '__init__' of exceptions.KeyError object>"
p24
sS'__setattr__'
p25
S"<method-wrapper '__setattr__' of exceptions.KeyError object>"
p26
sS'__reduce_ex__'
p27
S'<built-in method __reduce_ex__ of exceptions.KeyError object>'
p28
sS'__new__'
p29
S'<built-in method __new__ of type object>'
p30
sS'__format__'
p31
S'<built-in method __format__ of exceptions.KeyError object>'
p32
sS'__class__'
p33
S"<type 'exceptions.KeyError'>"
p34
sS'__doc__'
p35
S"'Mapping key not found.'"
p36
sS'__getitem__'
p37
S"<method-wrapper '__getitem__' of exceptions.KeyError object>"
p38
sS'__setstate__'
p39
S'<built-in method __setstate__ of exceptions.KeyError object>'
p40
sS'__getattribute__'
p41
S"<method-wrapper '__getattribute__' of exceptions.KeyError object>"
p42
sS'args'
p43
S'(3,)'
p44
sS'__subclasshook__'
p45
S'<built-in method __subclasshook__ of type object>'
p46
sS'__unicode__'
p47
S'<built-in method __unicode__ of exceptions.KeyError object>'
p48
sS'__delattr__'
p49
S"<method-wrapper '__delattr__' of exceptions.KeyError object>"
p50
sS'__repr__'
p51
S"<method-wrapper '__repr__' of exceptions.KeyError object>"
p52
sS'__hash__'
p53
S"<method-wrapper '__hash__' of exceptions.KeyError object>"
p54
ssS'evalue'
p55
S'3'
sS'request'
p56
cgluon.html
XML_unpickle
p57
(S'sC\xbc\x00\x00<div><table><tr><td style="font-weight:bold;vertical-align:top;">ajax</td><td style="vertical-align:top;">:</td><td><div>False</div></td></tr><tr><td style="font-weight:bold;vertical-align:top;">application</td><td style="vertical-align:top;">:</td><td><div>Piezas</div></td></tr><tr><td style="font-weight:bold;vertical-align:top;">args</td><td style="vertical-align:top;">:</td><td><div><table></table></div></td></tr><tr><td style="font-weight:bold;vertical-align:top;">cid</td><td style="vertical-align:top;">:</td><td><div>None</div></td></tr><tr><td style="font-weight:bold;vertical-align:top;">client</td><td style="vertical-align:top;">:</td><td><div>127.0.0.1</div></td></tr><tr><td style="font-weight:bold;vertical-align:top;">controller</td><td style="vertical-align:top;">:</td><td><div>estadisticas</div></td></tr><tr><td style="font-weight:bold;vertical-align:top;">cookies</td><td style="vertical-align:top;">:</td><td><div><table><tr><td style="font-weight:bold;vertical-align:top;">csrftoken</td><td style="vertical-align:top;">:</td><td><div>Ysrao3zw7CcIB7ITsZIJdqJuuTdPGjeziNY5zaQaPaGBQj7cAllhk5ayUOym5DAI<table><tr><td style="font-weight:bold;vertical-align:top;">comment</td><td style="vertical-align:top;">:</td><td><div></div></td></tr><tr><td style="font-weight:bold;vertical-align:top;">domain</td><td style="vertical-align:top;">:</td><td><div></div></td></tr><tr><td style="font-weight:bold;vertical-align:top;">expires</td><td style="vertical-align:top;">:</td><td><div></div></td></tr><tr><td style="font-weight:bold;vertical-align:top;">httponly</td><td style="vertical-align:top;">:</td><td><div></div></td></tr><tr><td style="font-weight:bold;vertical-align:top;">max-age</td><td style="vertical-align:top;">:</td><td><div></div></td></tr><tr><td style="font-weight:bold;vertical-align:top;">path</td><td style="vertical-align:top;">:</td><td><div></div></td></tr><tr><td style="font-weight:bold;vertical-align:top;">samesite</td><td style="vertical-align:top;">:</td><td><div></div></td></tr><tr><td style="font-weight:bold;vertical-align:top;">secure</td><td style="vertical-align:top;">:</td><td><div></div></td></tr><tr><td style="font-weight:bold;vertical-align:top;">version</td><td style="vertical-align:top;">:</td><td><div></div></td></tr></table></div></td></tr><tr><td style="font-weight:bold;vertical-align:top;">examples_session</td><td style="vertical-align:top;">:</td><td><div>eyJ0eXAiOiJKV1QiLCJhbGciOiJIUzI1NiJ9.eyJ1dWlkIjoiMDgwNGM2NTAtOTkwMy00MjFjLTk4ZGMtMmEwMzNlMjRlOWYzIiwic2VjdXJlIjpmYWxzZSwidGltZXN0YW1wIjoxNTgxNjI1ODU3LjI2ODc1NTJ9.W8kAo_zuPXBE6wvRDU1UWu2pbRJ-_qPy04mxh8gKblU<table><tr><td style="font-weight:bold;vertical-align:top;">comment</td><td style="vertical-align:top;">:</td><td><div></div></td></tr><tr><td style="font-weight:bold;vertical-align:top;">domain</td><td style="vertical-align:top;">:</td><td><div></div></td></tr><tr><td style="font-weight:bold;vertical-align:top;">expires</td><td style="vertical-align:top;">:</td><td><div></div></td></tr><tr><td style="font-weight:bold;vertical-align:top;">httponly</td><td style="vertical-align:top;">:</td><td><div></div></td></tr><tr><td style="font-weight:bold;vertical-align:top;">max-age</td><td style="vertical-align:top;">:</td><td><div></div></td></tr><tr><td style="font-weight:bold;vertical-align:top;">path</td><td style="vertical-align:top;">:</td><td><div></div></td></tr><tr><td style="font-weight:bold;vertical-align:top;">samesite</td><td style="vertical-align:top;">:</td><td><div></div></td></tr><tr><td style="font-weight:bold;vertical-align:top;">secure</td><td style="vertical-align:top;">:</td><td><div></div></td></tr><tr><td style="font-weight:bold;vertical-align:top;">version</td><td style="vertical-align:top;">:</td><td><div></div></td></tr></table></div></td></tr><tr><td style="font-weight:bold;vertical-align:top;">myfeed_session</td><td style="vertical-align:top;">:</td><td><div>eyJ0eXAiOiJKV1QiLCJhbGciOiJIUzI1NiJ9.eyJ1dWlkIjoiZTgwYWVlMTEtOTU4Yy00NDExLTgwMWEtNWEyMGE5ZTkwYTVkIiwic2VjdXJlIjpmYWxzZSwidGltZXN0YW1wIjoxNTgxNjI1NzEzLjYxMzAyMjYsInVzZXIiOnsiaWQiOjF9fQ.f-w-rzmR9gB-3HxgP12-aIrYLoca2B5Csz8UdgCbwLM<table><tr><td style="font-weight:bold;vertical-align:top;">comment</td><td style="vertical-align:top;">:</td><td><div></div></td></tr><tr><td style="font-weight:bold;vertical-align:top;">domain</td><td style="vertical-align:top;">:</td><td><div></div></td></tr><tr><td style="font-weight:bold;vertical-align:top;">expires</td><td style="vertical-align:top;">:</td><td><div></div></td></tr><tr><td style="font-weight:bold;vertical-align:top;">httponly</td><td style="vertical-align:top;">:</td><td><div></div></td></tr><tr><td style="font-weight:bold;vertical-align:top;">max-age</td><td style="vertical-align:top;">:</td><td><div></div></td></tr><tr><td style="font-weight:bold;vertical-align:top;">path</td><td style="vertical-align:top;">:</td><td><div></div></td></tr><tr><td style="font-weight:bold;vertical-align:top;">samesite</td><td style="vertical-align:top;">:</td><td><div></div></td></tr><tr><td style="font-weight:bold;vertical-align:top;">secure</td><td style="vertical-align:top;">:</td><td><div></div></td></tr><tr><td style="font-weight:bold;vertical-align:top;">version</td><td style="vertical-align:top;">:</td><td><div></div></td></tr></table></div></td></tr><tr><td style="font-weight:bold;vertical-align:top;">session_id_admin</td><td style="vertical-align:top;">:</td><td><div>127.0.0.1-04cc2a6e-60ef-46cb-9463-786fd16c5dee<table><tr><td style="font-weight:bold;vertical-align:top;">comment</td><td style="vertical-align:top;">:</td><td><div></div></td></tr><tr><td style="font-weight:bold;vertical-align:top;">domain</td><td style="vertical-align:top;">:</td><td><div></div></td></tr><tr><td style="font-weight:bold;vertical-align:top;">expires</td><td style="vertical-align:top;">:</td><td><div></div></td></tr><tr><td style="font-weight:bold;vertical-align:top;">httponly</td><td style="vertical-align:top;">:</td><td><div></div></td></tr><tr><td style="font-weight:bold;vertical-align:top;">max-age</td><td style="vertical-align:top;">:</td><td><div></div></td></tr><tr><td style="font-weight:bold;vertical-align:top;">path</td><td style="vertical-align:top;">:</td><td><div></div></td></tr><tr><td style="font-weight:bold;vertical-align:top;">samesite</td><td style="vertical-align:top;">:</td><td><div></div></td></tr><tr><td style="font-weight:bold;vertical-align:top;">secure</td><td style="vertical-align:top;">:</td><td><div></div></td></tr><tr><td style="font-weight:bold;vertical-align:top;">version</td><td style="vertical-align:top;">:</td><td><div></div></td></tr></table></div></td></tr><tr><td style="font-weight:bold;vertical-align:top;">session_id_app</td><td style="vertical-align:top;">:</td><td><div>127.0.0.1-f441168c-6f52-4ff2-93fa-2119bc9aa5e1<table><tr><td style="font-weight:bold;vertical-align:top;">comment</td><td style="vertical-align:top;">:</td><td><div></div></td></tr><tr><td style="font-weight:bold;vertical-align:top;">domain</td><td style="vertical-align:top;">:</td><td><div></div></td></tr><tr><td style="font-weight:bold;vertical-align:top;">expires</td><td style="vertical-align:top;">:</td><td><div></div></td></tr><tr><td style="font-weight:bold;vertical-align:top;">httponly</td><td style="vertical-align:top;">:</td><td><div></div></td></tr><tr><td style="font-weight:bold;vertical-align:top;">max-age</td><td style="vertical-align:top;">:</td><td><div></div></td></tr><tr><td style="font-weight:bold;vertical-align:top;">path</td><td style="vertical-align:top;">:</td><td><div></div></td></tr><tr><td style="font-weight:bold;vertical-align:top;">samesite</td><td style="vertical-align:top;">:</td><td><div></div></td></tr><tr><td style="font-weight:bold;vertical-align:top;">secure</td><td style="vertical-align:top;">:</td><td><div></div></td></tr><tr><td style="font-weight:bold;vertical-align:top;">version</td><td style="vertical-align:top;">:</td><td><div></div></td></tr></table></div></td></tr><tr><td style="font-weight:bold;vertical-align:top;">session_id_facturas</td><td style="vertical-align:top;">:</td><td><div>127.0.0.1-1ad5de01-9a49-4a47-8e6b-50e9a43d43e9<table><tr><td style="font-weight:bold;vertical-align:top;">comment</td><td style="vertical-align:top;">:</td><td><div></div></td></tr><tr><td style="font-weight:bold;vertical-align:top;">domain</td><td style="vertical-align:top;">:</td><td><div></div></td></tr><tr><td style="font-weight:bold;vertical-align:top;">expires</td><td style="vertical-align:top;">:</td><td><div></div></td></tr><tr><td style="font-weight:bold;vertical-align:top;">httponly</td><td style="vertical-align:top;">:</td><td><div></div></td></tr><tr><td style="font-weight:bold;vertical-align:top;">max-age</td><td style="vertical-align:top;">:</td><td><div></div></td></tr><tr><td style="font-weight:bold;vertical-align:top;">path</td><td style="vertical-align:top;">:</td><td><div></div></td></tr><tr><td style="font-weight:bold;vertical-align:top;">samesite</td><td style="vertical-align:top;">:</td><td><div></div></td></tr><tr><td style="font-weight:bold;vertical-align:top;">secure</td><td style="vertical-align:top;">:</td><td><div></div></td></tr><tr><td style="font-weight:bold;vertical-align:top;">version</td><td style="vertical-align:top;">:</td><td><div></div></td></tr></table></div></td></tr><tr><td style="font-weight:bold;vertical-align:top;">session_id_horusmb</td><td style="vertical-align:top;">:</td><td><div>127.0.0.1-d23b41e6-830d-4be9-bf2e-826f720c6b9a<table><tr><td style="font-weight:bold;vertical-align:top;">comment</td><td style="vertical-align:top;">:</td><td><div></div></td></tr><tr><td style="font-weight:bold;vertical-align:top;">domain</td><td style="vertical-align:top;">:</td><td><div></div></td></tr><tr><td style="font-weight:bold;vertical-align:top;">expires</td><td style="vertical-align:top;">:</td><td><div></div></td></tr><tr><td style="font-weight:bold;vertical-align:top;">httponly</td><td style="vertical-align:top;">:</td><td><div></div></td></tr><tr><td style="font-weight:bold;vertical-align:top;">max-age</td><td style="vertical-align:top;">:</td><td><div></div></td></tr><tr><td style="font-weight:bold;vertical-align:top;">path</td><td style="vertical-align:top;">:</td><td><div></div></td></tr><tr><td style="font-weight:bold;vertical-align:top;">samesite</td><td style="vertical-align:top;">:</td><td><div></div></td></tr><tr><td style="font-weight:bold;vertical-align:top;">secure</td><td style="vertical-align:top;">:</td><td><div></div></td></tr><tr><td style="font-weight:bold;vertical-align:top;">version</td><td style="vertical-align:top;">:</td><td><div></div></td></tr></table></div></td></tr><tr><td style="font-weight:bold;vertical-align:top;">session_id_ia</td><td style="vertical-align:top;">:</td><td><div>127.0.0.1-9be620f4-d986-4580-b108-2a135c69126c<table><tr><td style="font-weight:bold;vertical-align:top;">comment</td><td style="vertical-align:top;">:</td><td><div></div></td></tr><tr><td style="font-weight:bold;vertical-align:top;">domain</td><td style="vertical-align:top;">:</td><td><div></div></td></tr><tr><td style="font-weight:bold;vertical-align:top;">expires</td><td style="vertical-align:top;">:</td><td><div></div></td></tr><tr><td style="font-weight:bold;vertical-align:top;">httponly</td><td style="vertical-align:top;">:</td><td><div></div></td></tr><tr><td style="font-weight:bold;vertical-align:top;">max-age</td><td style="vertical-align:top;">:</td><td><div></div></td></tr><tr><td style="font-weight:bold;vertical-align:top;">path</td><td style="vertical-align:top;">:</td><td><div></div></td></tr><tr><td style="font-weight:bold;vertical-align:top;">samesite</td><td style="vertical-align:top;">:</td><td><div></div></td></tr><tr><td style="font-weight:bold;vertical-align:top;">secure</td><td style="vertical-align:top;">:</td><td><div></div></td></tr><tr><td style="font-weight:bold;vertical-align:top;">version</td><td style="vertical-align:top;">:</td><td><div></div></td></tr></table></div></td></tr><tr><td style="font-weight:bold;vertical-align:top;">session_id_mapas</td><td style="vertical-align:top;">:</td><td><div>127.0.0.1-2f856de5-5951-44cd-b005-01a6989beb50<table><tr><td style="font-weight:bold;vertical-align:top;">comment</td><td style="vertical-align:top;">:</td><td><div></div></td></tr><tr><td style="font-weight:bold;vertical-align:top;">domain</td><td style="vertical-align:top;">:</td><td><div></div></td></tr><tr><td style="font-weight:bold;vertical-align:top;">expires</td><td style="vertical-align:top;">:</td><td><div></div></td></tr><tr><td style="font-weight:bold;vertical-align:top;">httponly</td><td style="vertical-align:top;">:</td><td><div></div></td></tr><tr><td style="font-weight:bold;vertical-align:top;">max-age</td><td style="vertical-align:top;">:</td><td><div></div></td></tr><tr><td style="font-weight:bold;vertical-align:top;">path</td><td style="vertical-align:top;">:</td><td><div></div></td></tr><tr><td style="font-weight:bold;vertical-align:top;">samesite</td><td style="vertical-align:top;">:</td><td><div></div></td></tr><tr><td style="font-weight:bold;vertical-align:top;">secure</td><td style="vertical-align:top;">:</td><td><div></div></td></tr><tr><td style="font-weight:bold;vertical-align:top;">version</td><td style="vertical-align:top;">:</td><td><div></div></td></tr></table></div></td></tr><tr><td style="font-weight:bold;vertical-align:top;">session_id_pieza</td><td style="vertical-align:top;">:</td><td><div>127.0.0.1-340f81d0-505e-480b-8759-dc3c1318a712<table><tr><td style="font-weight:bold;vertical-align:top;">comment</td><td style="vertical-align:top;">:</td><td><div></div></td></tr><tr><td style="font-weight:bold;vertical-align:top;">domain</td><td style="vertical-align:top;">:</td><td><div></div></td></tr><tr><td style="font-weight:bold;vertical-align:top;">expires</td><td style="vertical-align:top;">:</td><td><div></div></td></tr><tr><td style="font-weight:bold;vertical-align:top;">httponly</td><td style="vertical-align:top;">:</td><td><div></div></td></tr><tr><td style="font-weight:bold;vertical-align:top;">max-age</td><td style="vertical-align:top;">:</td><td><div></div></td></tr><tr><td style="font-weight:bold;vertical-align:top;">path</td><td style="vertical-align:top;">:</td><td><div></div></td></tr><tr><td style="font-weight:bold;vertical-align:top;">samesite</td><td style="vertical-align:top;">:</td><td><div></div></td></tr><tr><td style="font-weight:bold;vertical-align:top;">secure</td><td style="vertical-align:top;">:</td><td><div></div></td></tr><tr><td style="font-weight:bold;vertical-align:top;">version</td><td style="vertical-align:top;">:</td><td><div></div></td></tr></table></div></td></tr><tr><td style="font-weight:bold;vertical-align:top;">session_id_piezas</td><td style="vertical-align:top;">:</td><td><div>127.0.0.1-69d34f41-0912-426e-b4e6-bc576fa048e4<table><tr><td style="font-weight:bold;vertical-align:top;">comment</td><td style="vertical-align:top;">:</td><td><div></div></td></tr><tr><td style="font-weight:bold;vertical-align:top;">domain</td><td style="vertical-align:top;">:</td><td><div></div></td></tr><tr><td style="font-weight:bold;vertical-align:top;">expires</td><td style="vertical-align:top;">:</td><td><div></div></td></tr><tr><td style="font-weight:bold;vertical-align:top;">httponly</td><td style="vertical-align:top;">:</td><td><div></div></td></tr><tr><td style="font-weight:bold;vertical-align:top;">max-age</td><td style="vertical-align:top;">:</td><td><div></div></td></tr><tr><td style="font-weight:bold;vertical-align:top;">path</td><td style="vertical-align:top;">:</td><td><div></div></td></tr><tr><td style="font-weight:bold;vertical-align:top;">samesite</td><td style="vertical-align:top;">:</td><td><div></div></td></tr><tr><td style="font-weight:bold;vertical-align:top;">secure</td><td style="vertical-align:top;">:</td><td><div></div></td></tr><tr><td style="font-weight:bold;vertical-align:top;">version</td><td style="vertical-align:top;">:</td><td><div></div></td></tr></table></div></td></tr><tr><td style="font-weight:bold;vertical-align:top;">session_id_scoplam</td><td style="vertical-align:top;">:</td><td><div>127.0.0.1-a93fc12e-4117-4278-86f5-e08efd6cee37<table><tr><td style="font-weight:bold;vertical-align:top;">comment</td><td style="vertical-align:top;">:</td><td><div></div></td></tr><tr><td style="font-weight:bold;vertical-align:top;">domain</td><td style="vertical-align:top;">:</td><td><div></div></td></tr><tr><td style="font-weight:bold;vertical-align:top;">expires</td><td style="vertical-align:top;">:</td><td><div></div></td></tr><tr><td style="font-weight:bold;vertical-align:top;">httponly</td><td style="vertical-align:top;">:</td><td><div></div></td></tr><tr><td style="font-weight:bold;vertical-align:top;">max-age</td><td style="vertical-align:top;">:</td><td><div></div></td></tr><tr><td style="font-weight:bold;vertical-align:top;">path</td><td style="vertical-align:top;">:</td><td><div></div></td></tr><tr><td style="font-weight:bold;vertical-align:top;">samesite</td><td style="vertical-align:top;">:</td><td><div></div></td></tr><tr><td style="font-weight:bold;vertical-align:top;">secure</td><td style="vertical-align:top;">:</td><td><div></div></td></tr><tr><td style="font-weight:bold;vertical-align:top;">version</td><td style="vertical-align:top;">:</td><td><div></div></td></tr></table></div></td></tr><tr><td style="font-weight:bold;vertical-align:top;">session_id_solapin</td><td style="vertical-align:top;">:</td><td><div>127.0.0.1-35d504f0-009e-4a77-9e8c-1bb4cba102fc<table><tr><td style="font-weight:bold;vertical-align:top;">comment</td><td style="vertical-align:top;">:</td><td><div></div></td></tr><tr><td style="font-weight:bold;vertical-align:top;">domain</td><td style="vertical-align:top;">:</td><td><div></div></td></tr><tr><td style="font-weight:bold;vertical-align:top;">expires</td><td style="vertical-align:top;">:</td><td><div></div></td></tr><tr><td style="font-weight:bold;vertical-align:top;">httponly</td><td style="vertical-align:top;">:</td><td><div></div></td></tr><tr><td style="font-weight:bold;vertical-align:top;">max-age</td><td style="vertical-align:top;">:</td><td><div></div></td></tr><tr><td style="font-weight:bold;vertical-align:top;">path</td><td style="vertical-align:top;">:</td><td><div></div></td></tr><tr><td style="font-weight:bold;vertical-align:top;">samesite</td><td style="vertical-align:top;">:</td><td><div></div></td></tr><tr><td style="font-weight:bold;vertical-align:top;">secure</td><td style="vertical-align:top;">:</td><td><div></div></td></tr><tr><td style="font-weight:bold;vertical-align:top;">version</td><td style="vertical-align:top;">:</td><td><div></div></td></tr></table></div></td></tr><tr><td style="font-weight:bold;vertical-align:top;">session_id_test</td><td style="vertical-align:top;">:</td><td><div>127.0.0.1-20495d67-d40b-42cc-b227-bf46895b1600<table><tr><td style="font-weight:bold;vertical-align:top;">comment</td><td style="vertical-align:top;">:</td><td><div></div></td></tr><tr><td style="font-weight:bold;vertical-align:top;">domain</td><td style="vertical-align:top;">:</td><td><div></div></td></tr><tr><td style="font-weight:bold;vertical-align:top;">expires</td><td style="vertical-align:top;">:</td><td><div></div></td></tr><tr><td style="font-weight:bold;vertical-align:top;">httponly</td><td style="vertical-align:top;">:</td><td><div></div></td></tr><tr><td style="font-weight:bold;vertical-align:top;">max-age</td><td style="vertical-align:top;">:</td><td><div></div></td></tr><tr><td style="font-weight:bold;vertical-align:top;">path</td><td style="vertical-align:top;">:</td><td><div></div></td></tr><tr><td style="font-weight:bold;vertical-align:top;">samesite</td><td style="vertical-align:top;">:</td><td><div></div></td></tr><tr><td style="font-weight:bold;vertical-align:top;">secure</td><td style="vertical-align:top;">:</td><td><div></div></td></tr><tr><td style="font-weight:bold;vertical-align:top;">version</td><td style="vertical-align:top;">:</td><td><div></div></td></tr></table></div></td></tr><tr><td style="font-weight:bold;vertical-align:top;">session_id_vue_jose</td><td style="vertical-align:top;">:</td><td><div>127.0.0.1-d135bfb7-15bd-48dd-ac20-f561047ac795<table><tr><td style="font-weight:bold;vertical-align:top;">comment</td><td style="vertical-align:top;">:</td><td><div></div></td></tr><tr><td style="font-weight:bold;vertical-align:top;">domain</td><td style="vertical-align:top;">:</td><td><div></div></td></tr><tr><td style="font-weight:bold;vertical-align:top;">expires</td><td style="vertical-align:top;">:</td><td><div></div></td></tr><tr><td style="font-weight:bold;vertical-align:top;">httponly</td><td style="vertical-align:top;">:</td><td><div></div></td></tr><tr><td style="font-weight:bold;vertical-align:top;">max-age</td><td style="vertical-align:top;">:</td><td><div></div></td></tr><tr><td style="font-weight:bold;vertical-align:top;">path</td><td style="vertical-align:top;">:</td><td><div></div></td></tr><tr><td style="font-weight:bold;vertical-align:top;">samesite</td><td style="vertical-align:top;">:</td><td><div></div></td></tr><tr><td style="font-weight:bold;vertical-align:top;">secure</td><td style="vertical-align:top;">:</td><td><div></div></td></tr><tr><td style="font-weight:bold;vertical-align:top;">version</td><td style="vertical-align:top;">:</td><td><div></div></td></tr></table></div></td></tr><tr><td style="font-weight:bold;vertical-align:top;">session_id_welcome</td><td style="vertical-align:top;">:</td><td><div>127.0.0.1-ddbddfbc-dc47-4307-8a42-cbc0bc00085e<table><tr><td style="font-weight:bold;vertical-align:top;">comment</td><td style="vertical-align:top;">:</td><td><div></div></td></tr><tr><td style="font-weight:bold;vertical-align:top;">domain</td><td style="vertical-align:top;">:</td><td><div></div></td></tr><tr><td style="font-weight:bold;vertical-align:top;">expires</td><td style="vertical-align:top;">:</td><td><div></div></td></tr><tr><td style="font-weight:bold;vertical-align:top;">httponly</td><td style="vertical-align:top;">:</td><td><div></div></td></tr><tr><td style="font-weight:bold;vertical-align:top;">max-age</td><td style="vertical-align:top;">:</td><td><div></div></td></tr><tr><td style="font-weight:bold;vertical-align:top;">path</td><td style="vertical-align:top;">:</td><td><div></div></td></tr><tr><td style="font-weight:bold;vertical-align:top;">samesite</td><td style="vertical-align:top;">:</td><td><div></div></td></tr><tr><td style="font-weight:bold;vertical-align:top;">secure</td><td style="vertical-align:top;">:</td><td><div></div></td></tr><tr><td style="font-weight:bold;vertical-align:top;">version</td><td style="vertical-align:top;">:</td><td><div></div></td></tr></table></div></td></tr><tr><td style="font-weight:bold;vertical-align:top;">todo_session</td><td style="vertical-align:top;">:</td><td><div>eyJ0eXAiOiJKV1QiLCJhbGciOiJIUzI1NiJ9.eyJ1dWlkIjoiYTUwYzg4YzUtNGIxYy00MTY1LTgxM2UtZmJhMjY3NmI3MTA0Iiwic2VjdXJlIjpmYWxzZSwiY291bnRlciI6MiwidXNlciI6eyJpZCI6MX0sInRpbWVzdGFtcCI6MTU3ODU3NjM5OS42NjIwMTZ9.Ym1o_Vip3ue1brWatfG_B_pmTPvQ5VaUsWe1dhFoMAo<table><tr><td style="font-weight:bold;vertical-align:top;">comment</td><td style="vertical-align:top;">:</td><td><div></div></td></tr><tr><td style="font-weight:bold;vertical-align:top;">domain</td><td style="vertical-align:top;">:</td><td><div></div></td></tr><tr><td style="font-weight:bold;vertical-align:top;">expires</td><td style="vertical-align:top;">:</td><td><div></div></td></tr><tr><td style="font-weight:bold;vertical-align:top;">httponly</td><td style="vertical-align:top;">:</td><td><div></div></td></tr><tr><td style="font-weight:bold;vertical-align:top;">max-age</td><td style="vertical-align:top;">:</td><td><div></div></td></tr><tr><td style="font-weight:bold;vertical-align:top;">path</td><td style="vertical-align:top;">:</td><td><div></div></td></tr><tr><td style="font-weight:bold;vertical-align:top;">samesite</td><td style="vertical-align:top;">:</td><td><div></div></td></tr><tr><td style="font-weight:bold;vertical-align:top;">secure</td><td style="vertical-align:top;">:</td><td><div></div></td></tr><tr><td style="font-weight:bold;vertical-align:top;">version</td><td style="vertical-align:top;">:</td><td><div></div></td></tr></table></div></td></tr></table></div></td></tr><tr><td style="font-weight:bold;vertical-align:top;">env</td><td style="vertical-align:top;">:</td><td><div><table><tr><td style="font-weight:bold;vertical-align:top;">HTTP_ACCEPT</td><td style="vertical-align:top;">:</td><td><div>text/html,application/xhtml+xml,application/xml;q=0.9,image/webp,*/*;q=0.8</div></td></tr><tr><td style="font-weight:bold;vertical-align:top;">HTTP_ACCEPT_ENCODING</td><td style="vertical-align:top;">:</td><td><div>gzip, deflate</div></td></tr><tr><td style="font-weight:bold;vertical-align:top;">HTTP_ACCEPT_LANGUAGE</td><td style="vertical-align:top;">:</td><td><div>es-ES,es;q=0.8,en-US;q=0.5,en;q=0.3</div></td></tr><tr><td style="font-weight:bold;vertical-align:top;">HTTP_CACHE_CONTROL</td><td style="vertical-align:top;">:</td><td><div>max-age=0</div></td></tr><tr><td style="font-weight:bold;vertical-align:top;">HTTP_CONNECTION</td><td style="vertical-align:top;">:</td><td><div>keep-alive</div></td></tr><tr><td style="font-weight:bold;vertical-align:top;">HTTP_COOKIE</td><td style="vertical-align:top;">:</td><td><div>csrftoken=Ysrao3zw7CcIB7ITsZIJdqJuuTdPGjeziNY5zaQaPaGBQj7cAllhk5ayUOym5DAI; session_id_mapas=127.0.0.1-2f856de5-5951-44cd-b005-01a6989beb50; _dashboard_session=eyJ0eXAiOiJKV1QiLCJhbGciOiJIUzI1NiJ9.eyJ1dWlkIjoiNDA1ZmExMTYtNjMzNC00N2M1LTk2MDktNzU2NDQzOTU1ODA1Iiwic2VjdXJlIjpmYWxzZSwidGltZXN0YW1wIjoxNTgxNjI1NzcxLjgzOTIyMDMsInVzZXIiOnsiaWQiOjF9fQ.9rTbyZ7T6Saf9F5CRTq-WznjZnhMaRTWqTEo2M0K9d0; _scaffold_session=eyJ0eXAiOiJKV1QiLCJhbGciOiJIUzI1NiJ9.eyJ1dWlkIjoiOWY1OWQyN2MtODA0ZS00YTUxLTgzMWMtM2Y0MmM3NGEwZDQ2Iiwic2VjdXJlIjpmYWxzZSwidGltZXN0YW1wIjoxNTgxNjI1ODE4LjQ5NTc3MTQsInVzZXIiOm51bGx9.oQ57dmVyq4m3bo3S5QJDcIz3Ruy0Mu5Hg3ggyJXnhqs; todo_session=eyJ0eXAiOiJKV1QiLCJhbGciOiJIUzI1NiJ9.eyJ1dWlkIjoiYTUwYzg4YzUtNGIxYy00MTY1LTgxM2UtZmJhMjY3NmI3MTA0Iiwic2VjdXJlIjpmYWxzZSwiY291bnRlciI6MiwidXNlciI6eyJpZCI6MX0sInRpbWVzdGFtcCI6MTU3ODU3NjM5OS42NjIwMTZ9.Ym1o_Vip3ue1brWatfG_B_pmTPvQ5VaUsWe1dhFoMAo; session_id_vue_jose=127.0.0.1-d135bfb7-15bd-48dd-ac20-f561047ac795; session_id_solapin=127.0.0.1-35d504f0-009e-4a77-9e8c-1bb4cba102fc; session_id_ia=127.0.0.1-9be620f4-d986-4580-b108-2a135c69126c; session_id_horusmb=127.0.0.1-d23b41e6-830d-4be9-bf2e-826f720c6b9a; myfeed_session=eyJ0eXAiOiJKV1QiLCJhbGciOiJIUzI1NiJ9.eyJ1dWlkIjoiZTgwYWVlMTEtOTU4Yy00NDExLTgwMWEtNWEyMGE5ZTkwYTVkIiwic2VjdXJlIjpmYWxzZSwidGltZXN0YW1wIjoxNTgxNjI1NzEzLjYxMzAyMjYsInVzZXIiOnsiaWQiOjF9fQ.f-w-rzmR9gB-3HxgP12-aIrYLoca2B5Csz8UdgCbwLM; examples_session=eyJ0eXAiOiJKV1QiLCJhbGciOiJIUzI1NiJ9.eyJ1dWlkIjoiMDgwNGM2NTAtOTkwMy00MjFjLTk4ZGMtMmEwMzNlMjRlOWYzIiwic2VjdXJlIjpmYWxzZSwidGltZXN0YW1wIjoxNTgxNjI1ODU3LjI2ODc1NTJ9.W8kAo_zuPXBE6wvRDU1UWu2pbRJ-_qPy04mxh8gKblU; session_id_facturas=127.0.0.1-1ad5de01-9a49-4a47-8e6b-50e9a43d43e9; session_id_app=127.0.0.1-f441168c-6f52-4ff2-93fa-2119bc9aa5e1; session_id_test=127.0.0.1-20495d67-d40b-42cc-b227-bf46895b1600; session_id_scoplam=127.0.0.1-a93fc12e-4117-4278-86f5-e08efd6cee37; session_id_pieza=127.0.0.1-340f81d0-505e-480b-8759-dc3c1318a712; session_id_admin=127.0.0.1-04cc2a6e-60ef-46cb-9463-786fd16c5dee; session_id_piezas=127.0.0.1-69d34f41-0912-426e-b4e6-bc576fa048e4; session_id_welcome=127.0.0.1-ddbddfbc-dc47-4307-8a42-cbc0bc00085e</div></td></tr><tr><td style="font-weight:bold;vertical-align:top;">HTTP_HOST</td><td style="vertical-align:top;">:</td><td><div>127.0.0.1:8000</div></td></tr><tr><td style="font-weight:bold;vertical-align:top;">HTTP_REFERER</td><td style="vertical-align:top;">:</td><td><div>http://127.0.0.1:8000/Piezas/pieza/administrar</div></td></tr><tr><td style="font-weight:bold;vertical-align:top;">HTTP_UPGRADE_INSECURE_REQUESTS</td><td style="vertical-align:top;">:</td><td><div>1</div></td></tr><tr><td style="font-weight:bold;vertical-align:top;">HTTP_USER_AGENT</td><td style="vertical-align:top;">:</td><td><div>Mozilla/5.0 (Windows NT 10.0; Win64; x64; rv:72.0) Gecko/20100101 Firefox/72.0</div></td></tr><tr><td style="font-weight:bold;vertical-align:top;">PATH_INFO</td><td style="vertical-align:top;">:</td><td><div>/Piezas/estadisticas/estadistica_general</div></td></tr><tr><td style="font-weight:bold;vertical-align:top;">QUERY_STRING</td><td style="vertical-align:top;">:</td><td><div></div></td></tr><tr><td style="font-weight:bold;vertical-align:top;">REMOTE_ADDR</td><td style="vertical-align:top;">:</td><td><div>127.0.0.1</div></td></tr><tr><td style="font-weight:bold;vertical-align:top;">REMOTE_PORT</td><td style="vertical-align:top;">:</td><td><div>6077</div></td></tr><tr><td style="font-weight:bold;vertical-align:top;">REQUEST_METHOD</td><td style="vertical-align:top;">:</td><td><div>GET</div></td></tr><tr><td style="font-weight:bold;vertical-align:top;">SCRIPT_NAME</td><td style="vertical-align:top;">:</td><td><div></div></td></tr><tr><td style="font-weight:bold;vertical-align:top;">SERVER_NAME</td><td style="vertical-align:top;">:</td><td><div>DESKTOP-HTUJN4Q</div></td></tr><tr><td style="font-weight:bold;vertical-align:top;">SERVER_PORT</td><td style="vertical-align:top;">:</td><td><div>8000</div></td></tr><tr><td style="font-weight:bold;vertical-align:top;">SERVER_PROTOCOL</td><td style="vertical-align:top;">:</td><td><div>HTTP/1.1</div></td></tr><tr><td style="font-weight:bold;vertical-align:top;">SERVER_SOFTWARE</td><td style="vertical-align:top;">:</td><td><div>Rocket 1.2.6</div></td></tr><tr><td style="font-weight:bold;vertical-align:top;">app_folders</td><td style="vertical-align:top;">:</td><td><div>set([&#x27;C:\\\\Users\\\\Jorgito\\\\Desktop\\\\web2py_2.18.5_win\\\\applications\\\\welcome&#x27;, &#x27;C:\\\\Users\\\\Jorgito\\\\Desktop\\\\web2py_2.18.5_win\\\\applications\\\\Piezas&#x27;, &#x27;C:\\\\Users\\\\Jorgito\\\\Desktop\\\\web2py_2.18.5_win\\\\applications\\\\admin&#x27;])</div></td></tr><tr><td style="font-weight:bold;vertical-align:top;">applications_parent</td><td style="vertical-align:top;">:</td><td><div>C:\\Users\\Jorgito\\Desktop\\web2py_2.18.5_win</div></td></tr><tr><td style="font-weight:bold;vertical-align:top;">cmd_args</td><td style="vertical-align:top;">:</td><td><div><table></table></div></td></tr><tr><td style="font-weight:bold;vertical-align:top;">cmd_options</td><td style="vertical-align:top;">:</td><td><div>&lt;Values at 0x3542878: {&#x27;verbose&#x27;: False, &#x27;ip&#x27;: &#x27;127.0.0.1&#x27;, &#x27;debuglevel&#x27;: 30, &#x27;with_scheduler&#x27;: False, &#x27;shutdown_timeout&#x27;: 5, &#x27;taskbar&#x27;: False, &#x27;with_coverage&#x27;: False, &#x27;pid_filename&#x27;: &#x27;httpserver.pid&#x27;, &#x27;maxthreads&#x27;: None, &#x27;softcron&#x27;: False, &#x27;server_name&#x27;: &#x27;DESKTOP-HTUJN4Q&#x27;, &#x27;bpython&#x27;: False, &#x27;nogui&#x27;: False, &#x27;port&#x27;: 8000, &#x27;print_errors&#x27;: False, &#x27;extcron&#x27;: False, &#x27;runcron&#x27;: False, &#x27;run_system_tests&#x27;: False, &#x27;test&#x27;: None, &#x27;folder&#x27;: &#x27;C:\\\\Users\\\\Jorgito\\\\Desktop\\\\web2py_2.18.5_win&#x27;, &#x27;config&#x27;: &#x27;&#x27;, &#x27;minthreads&#x27;: None, &#x27;shell&#x27;: None, &#x27;run&#x27;: &#x27;&#x27;, &#x27;log_filename&#x27;: &#x27;httpserver.log&#x27;, &#x27;profiler_dir&#x27;: None, &#x27;args&#x27;: [], &#x27;socket_timeout&#x27;: 5, &#x27;ssl_ca_certificate&#x27;: None, &#x27;scheduler&#x27;: None, &#x27;interfaces&#x27;: None, &#x27;ssl_private_key&#x27;: &#x27;&#x27;, &#x27;gae&#x27;: None, &#x27;password&#x27;: &#x27;******&#x27;, &#x27;request_queue_size&#x27;: 5, &#x27;ssl_certificate&#x27;: &#x27;&#x27;, &#x27;cronjob&#x27;: False, &#x27;numthreads&#x27;: None, &#x27;quiet&#x27;: False, &#x27;import_models&#x27;: False, &#x27;timeout&#x27;: 10, &#x27;plain&#x27;: False, &#x27;nobanner&#x27;: False}&gt;</div></td></tr><tr><td style="font-weight:bold;vertical-align:top;">db_sessions</td><td style="vertical-align:top;">:</td><td><div>set([])</div></td></tr><tr><td style="font-weight:bold;vertical-align:top;">debugging</td><td style="vertical-align:top;">:</td><td><div>False</div></td></tr><tr><td style="font-weight:bold;vertical-align:top;">gluon_parent</td><td style="vertical-align:top;">:</td><td><div>C:\\Users\\Jorgito\\Desktop\\web2py_2.18.5_win</div></td></tr><tr><td style="font-weight:bold;vertical-align:top;">http_accept</td><td style="vertical-align:top;">:</td><td><div>text/html,application/xhtml+xml,application/xml;q=0.9,image/webp,*/*;q=0.8</div></td></tr><tr><td style="font-weight:bold;vertical-align:top;">http_accept_encoding</td><td style="vertical-align:top;">:</td><td><div>gzip, deflate</div></td></tr><tr><td style="font-weight:bold;vertical-align:top;">http_accept_language</td><td style="vertical-align:top;">:</td><td><div>es-ES,es;q=0.8,en-US;q=0.5,en;q=0.3</div></td></tr><tr><td style="font-weight:bold;vertical-align:top;">http_cache_control</td><td style="vertical-align:top;">:</td><td><div>max-age=0</div></td></tr><tr><td style="font-weight:bold;vertical-align:top;">http_connection</td><td style="vertical-align:top;">:</td><td><div>keep-alive</div></td></tr><tr><td style="font-weight:bold;vertical-align:top;">http_cookie</td><td style="vertical-align:top;">:</td><td><div>csrftoken=Ysrao3zw7CcIB7ITsZIJdqJuuTdPGjeziNY5zaQaPaGBQj7cAllhk5ayUOym5DAI; session_id_mapas=127.0.0.1-2f856de5-5951-44cd-b005-01a6989beb50; _dashboard_session=eyJ0eXAiOiJKV1QiLCJhbGciOiJIUzI1NiJ9.eyJ1dWlkIjoiNDA1ZmExMTYtNjMzNC00N2M1LTk2MDktNzU2NDQzOTU1ODA1Iiwic2VjdXJlIjpmYWxzZSwidGltZXN0YW1wIjoxNTgxNjI1NzcxLjgzOTIyMDMsInVzZXIiOnsiaWQiOjF9fQ.9rTbyZ7T6Saf9F5CRTq-WznjZnhMaRTWqTEo2M0K9d0; _scaffold_session=eyJ0eXAiOiJKV1QiLCJhbGciOiJIUzI1NiJ9.eyJ1dWlkIjoiOWY1OWQyN2MtODA0ZS00YTUxLTgzMWMtM2Y0MmM3NGEwZDQ2Iiwic2VjdXJlIjpmYWxzZSwidGltZXN0YW1wIjoxNTgxNjI1ODE4LjQ5NTc3MTQsInVzZXIiOm51bGx9.oQ57dmVyq4m3bo3S5QJDcIz3Ruy0Mu5Hg3ggyJXnhqs; todo_session=eyJ0eXAiOiJKV1QiLCJhbGciOiJIUzI1NiJ9.eyJ1dWlkIjoiYTUwYzg4YzUtNGIxYy00MTY1LTgxM2UtZmJhMjY3NmI3MTA0Iiwic2VjdXJlIjpmYWxzZSwiY291bnRlciI6MiwidXNlciI6eyJpZCI6MX0sInRpbWVzdGFtcCI6MTU3ODU3NjM5OS42NjIwMTZ9.Ym1o_Vip3ue1brWatfG_B_pmTPvQ5VaUsWe1dhFoMAo; session_id_vue_jose=127.0.0.1-d135bfb7-15bd-48dd-ac20-f561047ac795; session_id_solapin=127.0.0.1-35d504f0-009e-4a77-9e8c-1bb4cba102fc; session_id_ia=127.0.0.1-9be620f4-d986-4580-b108-2a135c69126c; session_id_horusmb=127.0.0.1-d23b41e6-830d-4be9-bf2e-826f720c6b9a; myfeed_session=eyJ0eXAiOiJKV1QiLCJhbGciOiJIUzI1NiJ9.eyJ1dWlkIjoiZTgwYWVlMTEtOTU4Yy00NDExLTgwMWEtNWEyMGE5ZTkwYTVkIiwic2VjdXJlIjpmYWxzZSwidGltZXN0YW1wIjoxNTgxNjI1NzEzLjYxMzAyMjYsInVzZXIiOnsiaWQiOjF9fQ.f-w-rzmR9gB-3HxgP12-aIrYLoca2B5Csz8UdgCbwLM; examples_session=eyJ0eXAiOiJKV1QiLCJhbGciOiJIUzI1NiJ9.eyJ1dWlkIjoiMDgwNGM2NTAtOTkwMy00MjFjLTk4ZGMtMmEwMzNlMjRlOWYzIiwic2VjdXJlIjpmYWxzZSwidGltZXN0YW1wIjoxNTgxNjI1ODU3LjI2ODc1NTJ9.W8kAo_zuPXBE6wvRDU1UWu2pbRJ-_qPy04mxh8gKblU; session_id_facturas=127.0.0.1-1ad5de01-9a49-4a47-8e6b-50e9a43d43e9; session_id_app=127.0.0.1-f441168c-6f52-4ff2-93fa-2119bc9aa5e1; session_id_test=127.0.0.1-20495d67-d40b-42cc-b227-bf46895b1600; session_id_scoplam=127.0.0.1-a93fc12e-4117-4278-86f5-e08efd6cee37; session_id_pieza=127.0.0.1-340f81d0-505e-480b-8759-dc3c1318a712; session_id_admin=127.0.0.1-04cc2a6e-60ef-46cb-9463-786fd16c5dee; session_id_piezas=127.0.0.1-69d34f41-0912-426e-b4e6-bc576fa048e4; session_id_welcome=127.0.0.1-ddbddfbc-dc47-4307-8a42-cbc0bc00085e</div></td></tr><tr><td style="font-weight:bold;vertical-align:top;">http_host</td><td style="vertical-align:top;">:</td><td><div>127.0.0.1:8000</div></td></tr><tr><td style="font-weight:bold;vertical-align:top;">http_referer</td><td style="vertical-align:top;">:</td><td><div>http://127.0.0.1:8000/Piezas/pieza/administrar</div></td></tr><tr><td style="font-weight:bold;vertical-align:top;">http_upgrade_insecure_requests</td><td style="vertical-align:top;">:</td><td><div>1</div></td></tr><tr><td style="font-weight:bold;vertical-align:top;">http_user_agent</td><td style="vertical-align:top;">:</td><td><div>Mozilla/5.0 (Windows NT 10.0; Win64; x64; rv:72.0) Gecko/20100101 Firefox/72.0</div></td></tr><tr><td style="font-weight:bold;vertical-align:top;">is_jython</td><td style="vertical-align:top;">:</td><td><div>False</div></td></tr><tr><td style="font-weight:bold;vertical-align:top;">is_py2</td><td style="vertical-align:top;">:</td><td><div>True</div></td></tr><tr><td style="font-weight:bold;vertical-align:top;">is_pypy</td><td style="vertical-align:top;">:</td><td><div>False</div></td></tr><tr><td style="font-weight:bold;vertical-align:top;">is_source</td><td style="vertical-align:top;">:</td><td><div>False</div></td></tr><tr><td style="font-weight:bold;vertical-align:top;">local_hosts</td><td style="vertical-align:top;">:</td><td><div><table><tr><td><div>DESKTOP-HTUJN4Q.unica.cu</div></td></tr><tr><td><div>10.18.5.109</div></td></tr><tr><td><div>DESKTOP-HTUJN4Q</div></td></tr><tr><td><div>::ffff:127.0.0.1</div></td></tr><tr><td><div>::1</div></td></tr><tr><td><div>fe80::8548:f993:3c0e:6b30%5</div></td></tr><tr><td><div>127.0.0.1</div></td></tr></table></div></td></tr><tr><td style="font-weight:bold;vertical-align:top;">path_info</td><td style="vertical-align:top;">:</td><td><div>/Piezas/estadisticas/estadistica_general</div></td></tr><tr><td style="font-weight:bold;vertical-align:top;">query_string</td><td style="vertical-align:top;">:</td><td><div></div></td></tr><tr><td style="font-weight:bold;vertical-align:top;">remote_addr</td><td style="vertical-align:top;">:</td><td><div>127.0.0.1</div></td></tr><tr><td style="font-weight:bold;vertical-align:top;">remote_port</td><td style="vertical-align:top;">:</td><td><div>6077</div></td></tr><tr><td style="font-weight:bold;vertical-align:top;">request_method</td><td style="vertical-align:top;">:</td><td><div>GET</div></td></tr><tr><td style="font-weight:bold;vertical-align:top;">request_uri</td><td style="vertical-align:top;">:</td><td><div>/Piezas/estadisticas/estadistica_general</div></td></tr><tr><td style="font-weight:bold;vertical-align:top;">script_name</td><td style="vertical-align:top;">:</td><td><div></div></td></tr><tr><td style="font-weight:bold;vertical-align:top;">server_name</td><td style="vertical-align:top;">:</td><td><div>DESKTOP-HTUJN4Q</div></td></tr><tr><td style="font-weight:bold;vertical-align:top;">server_port</td><td style="vertical-align:top;">:</td><td><div>8000</div></td></tr><tr><td style="font-weight:bold;vertical-align:top;">server_protocol</td><td style="vertical-align:top;">:</td><td><div>HTTP/1.1</div></td></tr><tr><td style="font-weight:bold;vertical-align:top;">server_software</td><td style="vertical-align:top;">:</td><td><div>Rocket 1.2.6</div></td></tr><tr><td style="font-weight:bold;vertical-align:top;">web2py_original_uri</td><td style="vertical-align:top;">:</td><td><div>/Piezas/estadisticas/estadistica_general</div></td></tr><tr><td style="font-weight:bold;vertical-align:top;">web2py_path</td><td style="vertical-align:top;">:</td><td><div>C:\\Users\\Jorgito\\Desktop\\web2py_2.18.5_win</div></td></tr><tr><td style="font-weight:bold;vertical-align:top;">web2py_version</td><td style="vertical-align:top;">:</td><td><div>2.18.5-stable+timestamp.2019.04.08.04.22.03</div></td></tr><tr><td style="font-weight:bold;vertical-align:top;">wsgi.errors</td><td style="vertical-align:top;">:</td><td><div>&lt;open file &#x27;&lt;stderr&gt;&#x27;, mode &#x27;w&#x27; at 0x0232D0D0&gt;</div></td></tr><tr><td style="font-weight:bold;vertical-align:top;">wsgi.file_wrapper</td><td style="vertical-align:top;">:</td><td><div>&lt;class wsgiref.util.FileWrapper at 0x03667AB0&gt;</div></td></tr><tr><td style="font-weight:bold;vertical-align:top;">wsgi.input</td><td style="vertical-align:top;">:</td><td><div>&lt;socket._fileobject object at 0x044BD0F0&gt;</div></td></tr><tr><td style="font-weight:bold;vertical-align:top;">wsgi.multiprocess</td><td style="vertical-align:top;">:</td><td><div>False</div></td></tr><tr><td style="font-weight:bold;vertical-align:top;">wsgi.multithread</td><td style="vertical-align:top;">:</td><td><div>True</div></td></tr><tr><td style="font-weight:bold;vertical-align:top;">wsgi.run_once</td><td style="vertical-align:top;">:</td><td><div>False</div></td></tr><tr><td style="font-weight:bold;vertical-align:top;">wsgi.url_scheme</td><td style="vertical-align:top;">:</td><td><div>http</div></td></tr><tr><td style="font-weight:bold;vertical-align:top;">wsgi.version</td><td style="vertical-align:top;">:</td><td><div><table><tr><td><div>1</div></td></tr><tr><td><div>0</div></td></tr></table></div></td></tr><tr><td style="font-weight:bold;vertical-align:top;">wsgi_errors</td><td style="vertical-align:top;">:</td><td><div>&lt;open file &#x27;&lt;stderr&gt;&#x27;, mode &#x27;w&#x27; at 0x0232D0D0&gt;</div></td></tr><tr><td style="font-weight:bold;vertical-align:top;">wsgi_file_wrapper</td><td style="vertical-align:top;">:</td><td><div>&lt;class wsgiref.util.FileWrapper at 0x03667AB0&gt;</div></td></tr><tr><td style="font-weight:bold;vertical-align:top;">wsgi_input</td><td style="vertical-align:top;">:</td><td><div>&lt;socket._fileobject object at 0x044BD0F0&gt;</div></td></tr><tr><td style="font-weight:bold;vertical-align:top;">wsgi_multiprocess</td><td style="vertical-align:top;">:</td><td><div>False</div></td></tr><tr><td style="font-weight:bold;vertical-align:top;">wsgi_multithread</td><td style="vertical-align:top;">:</td><td><div>True</div></td></tr><tr><td style="font-weight:bold;vertical-align:top;">wsgi_run_once</td><td style="vertical-align:top;">:</td><td><div>False</div></td></tr><tr><td style="font-weight:bold;vertical-align:top;">wsgi_url_scheme</td><td style="vertical-align:top;">:</td><td><div>http</div></td></tr><tr><td style="font-weight:bold;vertical-align:top;">wsgi_version</td><td style="vertical-align:top;">:</td><td><div><table><tr><td><div>1</div></td></tr><tr><td><div>0</div></td></tr></table></div></td></tr></table></div></td></tr><tr><td style="font-weight:bold;vertical-align:top;">extension</td><td style="vertical-align:top;">:</td><td><div>html</div></td></tr><tr><td style="font-weight:bold;vertical-align:top;">folder</td><td style="vertical-align:top;">:</td><td><div>C:\\Users\\Jorgito\\Desktop\\web2py_2.18.5_win\\applications\\Piezas</div></td></tr><tr><td style="font-weight:bold;vertical-align:top;">function</td><td style="vertical-align:top;">:</td><td><div>estadistica_general</div></td></tr><tr><td style="font-weight:bold;vertical-align:top;">global_settings</td><td style="vertical-align:top;">:</td><td><div><table><tr><td style="font-weight:bold;vertical-align:top;">app_folders</td><td style="vertical-align:top;">:</td><td><div>set([&#x27;C:\\\\Users\\\\Jorgito\\\\Desktop\\\\web2py_2.18.5_win\\\\applications\\\\welcome&#x27;, &#x27;C:\\\\Users\\\\Jorgito\\\\Desktop\\\\web2py_2.18.5_win\\\\applications\\\\Piezas&#x27;, &#x27;C:\\\\Users\\\\Jorgito\\\\Desktop\\\\web2py_2.18.5_win\\\\applications\\\\admin&#x27;])</div></td></tr><tr><td style="font-weight:bold;vertical-align:top;">applications_parent</td><td style="vertical-align:top;">:</td><td><div>C:\\Users\\Jorgito\\Desktop\\web2py_2.18.5_win</div></td></tr><tr><td style="font-weight:bold;vertical-align:top;">cmd_args</td><td style="vertical-align:top;">:</td><td><div><table></table></div></td></tr><tr><td style="font-weight:bold;vertical-align:top;">cmd_options</td><td style="vertical-align:top;">:</td><td><div>&lt;Values at 0x3542878: {&#x27;verbose&#x27;: False, &#x27;ip&#x27;: &#x27;127.0.0.1&#x27;, &#x27;debuglevel&#x27;: 30, &#x27;with_scheduler&#x27;: False, &#x27;shutdown_timeout&#x27;: 5, &#x27;taskbar&#x27;: False, &#x27;with_coverage&#x27;: False, &#x27;pid_filename&#x27;: &#x27;httpserver.pid&#x27;, &#x27;maxthreads&#x27;: None, &#x27;softcron&#x27;: False, &#x27;server_name&#x27;: &#x27;DESKTOP-HTUJN4Q&#x27;, &#x27;bpython&#x27;: False, &#x27;nogui&#x27;: False, &#x27;port&#x27;: 8000, &#x27;print_errors&#x27;: False, &#x27;extcron&#x27;: False, &#x27;runcron&#x27;: False, &#x27;run_system_tests&#x27;: False, &#x27;test&#x27;: None, &#x27;folder&#x27;: &#x27;C:\\\\Users\\\\Jorgito\\\\Desktop\\\\web2py_2.18.5_win&#x27;, &#x27;config&#x27;: &#x27;&#x27;, &#x27;minthreads&#x27;: None, &#x27;shell&#x27;: None, &#x27;run&#x27;: &#x27;&#x27;, &#x27;log_filename&#x27;: &#x27;httpserver.log&#x27;, &#x27;profiler_dir&#x27;: None, &#x27;args&#x27;: [], &#x27;socket_timeout&#x27;: 5, &#x27;ssl_ca_certificate&#x27;: None, &#x27;scheduler&#x27;: None, &#x27;interfaces&#x27;: None, &#x27;ssl_private_key&#x27;: &#x27;&#x27;, &#x27;gae&#x27;: None, &#x27;password&#x27;: &#x27;******&#x27;, &#x27;request_queue_size&#x27;: 5, &#x27;ssl_certificate&#x27;: &#x27;&#x27;, &#x27;cronjob&#x27;: False, &#x27;numthreads&#x27;: None, &#x27;quiet&#x27;: False, &#x27;import_models&#x27;: False, &#x27;timeout&#x27;: 10, &#x27;plain&#x27;: False, &#x27;nobanner&#x27;: False}&gt;</div></td></tr><tr><td style="font-weight:bold;vertical-align:top;">db_sessions</td><td style="vertical-align:top;">:</td><td><div>set([])</div></td></tr><tr><td style="font-weight:bold;vertical-align:top;">debugging</td><td style="vertical-align:top;">:</td><td><div>False</div></td></tr><tr><td style="font-weight:bold;vertical-align:top;">gluon_parent</td><td style="vertical-align:top;">:</td><td><div>C:\\Users\\Jorgito\\Desktop\\web2py_2.18.5_win</div></td></tr><tr><td style="font-weight:bold;vertical-align:top;">is_jython</td><td style="vertical-align:top;">:</td><td><div>False</div></td></tr><tr><td style="font-weight:bold;vertical-align:top;">is_py2</td><td style="vertical-align:top;">:</td><td><div>True</div></td></tr><tr><td style="font-weight:bold;vertical-align:top;">is_pypy</td><td style="vertical-align:top;">:</td><td><div>False</div></td></tr><tr><td style="font-weight:bold;vertical-align:top;">is_source</td><td style="vertical-align:top;">:</td><td><div>False</div></td></tr><tr><td style="font-weight:bold;vertical-align:top;">local_hosts</td><td style="vertical-align:top;">:</td><td><div><table><tr><td><div>DESKTOP-HTUJN4Q.unica.cu</div></td></tr><tr><td><div>10.18.5.109</div></td></tr><tr><td><div>DESKTOP-HTUJN4Q</div></td></tr><tr><td><div>::ffff:127.0.0.1</div></td></tr><tr><td><div>::1</div></td></tr><tr><td><div>fe80::8548:f993:3c0e:6b30%5</div></td></tr><tr><td><div>127.0.0.1</div></td></tr></table></div></td></tr><tr><td style="font-weight:bold;vertical-align:top;">web2py_version</td><td style="vertical-align:top;">:</td><td><div>2.18.5-stable+timestamp.2019.04.08.04.22.03</div></td></tr></table></div></td></tr><tr><td style="font-weight:bold;vertical-align:top;">is_https</td><td style="vertical-align:top;">:</td><td><div>False</div></td></tr><tr><td style="font-weight:bold;vertical-align:top;">is_local</td><td style="vertical-align:top;">:</td><td><div>True</div></td></tr><tr><td style="font-weight:bold;vertical-align:top;">is_restful</td><td style="vertical-align:top;">:</td><td><div>False</div></td></tr><tr><td style="font-weight:bold;vertical-align:top;">is_scheduler</td><td style="vertical-align:top;">:</td><td><div>False</div></td></tr><tr><td style="font-weight:bold;vertical-align:top;">is_shell</td><td style="vertical-align:top;">:</td><td><div>False</div></td></tr><tr><td style="font-weight:bold;vertical-align:top;">method</td><td style="vertical-align:top;">:</td><td><div>GET</div></td></tr><tr><td style="font-weight:bold;vertical-align:top;">now</td><td style="vertical-align:top;">:</td><td><div>datetime.datetime(2020, 3, 10, 9, 33, 24, 299000)</div></td></tr><tr><td style="font-weight:bold;vertical-align:top;">url</td><td style="vertical-align:top;">:</td><td><div>/Piezas/estadisticas/estadistica_general</div></td></tr><tr><td style="font-weight:bold;vertical-align:top;">utcnow</td><td style="vertical-align:top;">:</td><td><div>datetime.datetime(2020, 3, 10, 13, 33, 24, 299000)</div></td></tr><tr><td style="font-weight:bold;vertical-align:top;">wsgi</td><td style="vertical-align:top;">:</td><td><div>&lt;gluon.main.LazyWSGI object at 0x048DC610&gt;</div></td></tr></table></div>'
tRp58
sS'frames'
p59
(lp60
(dp61
S'file'
p62
S'C:\\Users\\Jorgito\\Desktop\\web2py_2.18.5_win\\gluon\\restricted.py'
p63
sS'dump'
p64
(dp65
S'environment'
p66
S"{'A': <class 'gluon.html.A'>, 'ANY_OF': <class 'pydal.validators.ANY_OF'>, 'ASSIGNJS': <function ASSIGNJS>, 'AppConfig': <function AppConfig>, 'Auth': <class 'gluon.tools.Auth'>, 'B': <class 'gluon.html.B'>, 'BEAUTIFY': <class 'gluon.html.BEAUTIFY'>, 'BODY': <class 'gluon.html.BODY'>, 'BR': <class 'gluon.html.BR'>, 'BUTTON': <class 'gluon.html.BUTTON'>, ...}"
p67
sS'ccode'
p68
S'<code object <module> at 04532BF0, file "C:\\User...ions\\Piezas\\controllers/estadisticas.py", line 1>'
p69
ssS'lnum'
p70
I219
sS'lines'
p71
(dp72
I214
S'    if environment is None:'
p73
sI215
S'        environment = {}'
p74
sI216
S"    environment['__file__'] = layer"
p75
sI217
S"    environment['__name__'] = '__restricted__'"
p76
sI218
S'    try:'
p77
sI219
S'        exec(ccode, environment)'
p78
sI220
S'    except HTTP:'
p79
sI221
S'        raise'
p80
sI222
S'    except RestrictedError:'
p81
sI223
S'        # do not encapsulate (obfuscate) the original RestrictedError'
p82
ssS'call'
p83
S'(ccode=<code object <module> at 04532BF0, file "C:\\User...ions\\Piezas\\controllers/estadisticas.py", line 1>, environment={\'A\': <class \'gluon.html.A\'>, \'ANY_OF\': <class \'pydal.validators.ANY_OF\'>, \'ASSIGNJS\': <function ASSIGNJS>, \'AppConfig\': <function AppConfig>, \'Auth\': <class \'gluon.tools.Auth\'>, \'B\': <class \'gluon.html.B\'>, \'BEAUTIFY\': <class \'gluon.html.BEAUTIFY\'>, \'BODY\': <class \'gluon.html.BODY\'>, \'BR\': <class \'gluon.html.BR\'>, \'BUTTON\': <class \'gluon.html.BUTTON\'>, ...}, layer=r\'C:\\Users\\Jorgito\\Desktop\\web2py_2.18.5_win\\applications\\Piezas\\controllers/estadisticas.py\', scode=<code object <module> at 04532BF0, file "C:\\User...ions\\Piezas\\controllers/estadisticas.py", line 1>)'
p84
sS'func'
p85
S'restricted'
p86
sa(dp87
g62
S'C:\\Users\\Jorgito\\Desktop\\web2py_2.18.5_win\\applications\\Piezas\\controllers\\estadisticas.py'
p88
sg64
(dp89
sg70
I138
sg71
(dp90
I128
S''
sI129
S'        cantidad = 0'
p91
sI130
S''
sI131
S'        for j in rows:'
p92
sI132
S'            cantidad += j.cantidad'
p93
sI133
S''
sI134
S'        valores.append(cantidad)'
p94
sI135
S''
sI136
S'    return valores'
p95
sI127
S'        ) == year) & (db.venta.id_pieza_venta == db.pieza_venta.id) & consulta).select(db.pieza_venta.cantidad)'
p96
ssg83
S'()'
p97
sg85
S'<module>'
p98
sa(dp99
g62
S'C:\\Users\\Jorgito\\Desktop\\web2py_2.18.5_win\\gluon\\globals.py'
p100
sg64
(dp101
S'self'
p102
S'undefined'
p103
sS'f'
S'<function estadistica_general>'
p104
ssg70
I421
sg71
(dp105
I416
S"        self.flash = ''            # used by the default view layout"
p106
sI417
S'        self.meta = Storage()      # used by web2py_ajax.html'
p107
sI418
S'        self.menu = []             # used by the default view layout'
p108
sI419
S'        self.files = []            # used by web2py_ajax.html'
p109
sI420
S'        self._vars = None'
p110
sI421
S'        self._caller = lambda f: f()'
p111
sI422
S'        self._view_environment = None'
p112
sI423
S'        self._custom_commit = None'
p113
sI424
S'        self._custom_rollback = None'
p114
sI425
S"        self.generic_patterns = ['*']"
p115
ssg83
S'(f=<function estadistica_general>)'
p116
sg85
S'<lambda>'
p117
sa(dp118
g62
S'C:\\Users\\Jorgito\\Desktop\\web2py_2.18.5_win\\applications\\Piezas\\controllers\\estadisticas.py'
p119
sg64
(dp120
S'global __obtener_estadisticas_general_entradas'
p121
S'<function __obtener_estadisticas_general_entradas>'
p122
sS'marzo'
p123
g103
sS'valores_entradas'
p124
g103
sS'year'
p125
S'2020'
p126
ssg70
I52
sg71
(dp127
I47
S''
sI48
S'    if form.accepts(request, session, keepvalues=True):'
p128
sI49
S'        response.flash = ""'
p129
sI50
S'        year = form.vars.year'
p130
sI51
S''
sI52
S'    valores_entradas, marzo = __obtener_estadisticas_general_entradas(year)'
p131
sI53
S'    valores_ventas = __obtener_estadisticas_general_ventas(year)'
p132
sI54
S''
sI55
S'    test = db((db.pieza_entrada.fecha_entrada.month() == 3) & (db.pieza_entrada.fecha_entrada.year('
p133
sI56
S'    ) == year)).select(db.pieza_entrada.fecha_entrada, db.pieza_entrada.codigo, db.pieza_entrada.cantidad,'
p134
ssg83
S'()'
p135
sg85
S'estadistica_general'
p136
sa(dp137
g62
S'C:\\Users\\Jorgito\\Desktop\\web2py_2.18.5_win\\applications\\Piezas\\controllers\\estadisticas.py'
p138
sg64
(dp139
S'i'
S'3'
sS'm'
S"<Row {'fecha_entrada': datetime.date(2020, 3, 6), 'codigo': 'Code123', 'cantidad': 1L}>"
p140
sS'm.cantidad'
p141
S'1L'
p142
sS'meses'
p143
g19
sS'm.fecha_entrada.day'
p144
S'6'
sS'm.fecha_entrada'
p145
S'datetime.date(2020, 3, 6)'
p146
ssg70
I95
sg71
(dp147
I96
S'                # meses[i][m.fecha_entrada.day] ='
p148
sI97
S''
sI98
S'    return valores, meses'
p149
sI99
S''
sI90
S'        for m in mes:'
p150
sI91
S'            try:'
p151
sI92
S'                if meses[i][m.fecha_entrada.day]:'
p152
sI93
S'                    meses[i][m.fecha_entrada.day] += m.cantidad'
p153
sI94
S'            except:'
p154
sI95
S'                meses[i].append({m.fecha_entrada.day: m.cantidad})'
p155
ssg83
S'(year=2020)'
p156
sg85
S'__obtener_estadisticas_general_entradas'
p157
sasS'pyver'
p158
S'Python 2.7.9: C:\\Users\\Jorgito\\Desktop\\web2py_2.18.5_win\\web2py.exe (prefix: )'
p159
sS'session'
p160
g57
(S's\x9c\x00\x00\x00<div><table><tr><td style="font-weight:bold;vertical-align:top;">flash</td><td style="vertical-align:top;">:</td><td><div>None</div></td></tr></table></div>'
tRp161
sS'etype'
p162
S"<type 'exceptions.KeyError'>"
p163
sS'date'
p164
S'Tue Mar 10 09:33:24 2020'
p165
sS'response'
p166
g57
(S'sX(\x00\x00<div><table><tr><td style="font-weight:bold;vertical-align:top;">body</td><td style="vertical-align:top;">:</td><td><div>&lt;cStringIO.StringO object at 0x048DCD00&gt;</div></td></tr><tr><td style="font-weight:bold;vertical-align:top;">cookies</td><td style="vertical-align:top;">:</td><td><div><table><tr><td style="font-weight:bold;vertical-align:top;">session_id_piezas</td><td style="vertical-align:top;">:</td><td><div>127.0.0.1-69d34f41-0912-426e-b4e6-bc576fa048e4<table><tr><td style="font-weight:bold;vertical-align:top;">comment</td><td style="vertical-align:top;">:</td><td><div></div></td></tr><tr><td style="font-weight:bold;vertical-align:top;">domain</td><td style="vertical-align:top;">:</td><td><div></div></td></tr><tr><td style="font-weight:bold;vertical-align:top;">expires</td><td style="vertical-align:top;">:</td><td><div></div></td></tr><tr><td style="font-weight:bold;vertical-align:top;">httponly</td><td style="vertical-align:top;">:</td><td><div></div></td></tr><tr><td style="font-weight:bold;vertical-align:top;">max-age</td><td style="vertical-align:top;">:</td><td><div></div></td></tr><tr><td style="font-weight:bold;vertical-align:top;">path</td><td style="vertical-align:top;">:</td><td><div>/</div></td></tr><tr><td style="font-weight:bold;vertical-align:top;">samesite</td><td style="vertical-align:top;">:</td><td><div></div></td></tr><tr><td style="font-weight:bold;vertical-align:top;">secure</td><td style="vertical-align:top;">:</td><td><div></div></td></tr><tr><td style="font-weight:bold;vertical-align:top;">version</td><td style="vertical-align:top;">:</td><td><div></div></td></tr></table></div></td></tr></table></div></td></tr><tr><td style="font-weight:bold;vertical-align:top;">delimiters</td><td style="vertical-align:top;">:</td><td><div><table><tr><td><div>{{</div></td></tr><tr><td><div>}}</div></td></tr></table></div></td></tr><tr><td style="font-weight:bold;vertical-align:top;">files</td><td style="vertical-align:top;">:</td><td><div><table></table></div></td></tr><tr><td style="font-weight:bold;vertical-align:top;">flash</td><td style="vertical-align:top;">:</td><td><div></div></td></tr><tr><td style="font-weight:bold;vertical-align:top;">form_label_separator</td><td style="vertical-align:top;">:</td><td><div></div></td></tr><tr><td style="font-weight:bold;vertical-align:top;">formstyle</td><td style="vertical-align:top;">:</td><td><div>bootstrap4_inline</div></td></tr><tr><td style="font-weight:bold;vertical-align:top;">generic_patterns</td><td style="vertical-align:top;">:</td><td><div><table><tr><td><div>*</div></td></tr></table></div></td></tr><tr><td style="font-weight:bold;vertical-align:top;">google_analytics_id</td><td style="vertical-align:top;">:</td><td><div>None</div></td></tr><tr><td style="font-weight:bold;vertical-align:top;">headers</td><td style="vertical-align:top;">:</td><td><div><table><tr><td style="font-weight:bold;vertical-align:top;">X-Powered-By</td><td style="vertical-align:top;">:</td><td><div>web2py</div></td></tr></table></div></td></tr><tr><td style="font-weight:bold;vertical-align:top;">menu</td><td style="vertical-align:top;">:</td><td><div><table><tr><td><div><table><tr><td><div>Inicio</div></td></tr><tr><td><div>False</div></td></tr><tr><td><div>/Piezas</div></td></tr><tr><td><div><table></table></div></td></tr></table></div></td></tr><tr><td><div><table><tr><td><div>Piezas</div></td></tr><tr><td><div>False</div></td></tr><tr><td><div>pieza</div></td></tr><tr><td><div><table><tr><td><div><table><tr><td><div>A\xc3\xb1adir pieza</div></td></tr><tr><td><div>False</div></td></tr><tr><td><div>/Piezas/pieza/crear</div></td></tr></table></div></td></tr><tr><td><div><table><tr><td><div>Administrar pieza</div></td></tr><tr><td><div>False</div></td></tr><tr><td><div>/Piezas/pieza/administrar</div></td></tr></table></div></td></tr></table></div></td></tr></table></div></td></tr><tr><td><div><table><tr><td><div>Proveedores</div></td></tr><tr><td><div>False</div></td></tr><tr><td><div>proveedor</div></td></tr><tr><td><div><table><tr><td><div><table><tr><td><div>A\xc3\xb1adir proveedor</div></td></tr><tr><td><div>False</div></td></tr><tr><td><div>/Piezas/proveedor/crear</div></td></tr></table></div></td></tr><tr><td><div><table><tr><td><div>Administrar proveedor</div></td></tr><tr><td><div>False</div></td></tr><tr><td><div>/Piezas/proveedor/administrar</div></td></tr></table></div></td></tr></table></div></td></tr></table></div></td></tr><tr><td><div><table><tr><td><div>Ventas</div></td></tr><tr><td><div>False</div></td></tr><tr><td><div>venta</div></td></tr><tr><td><div><table><tr><td><div><table><tr><td><div>Realizar venta</div></td></tr><tr><td><div>False</div></td></tr><tr><td><div>/Piezas/venta/seleccionar_pieza</div></td></tr></table></div></td></tr><tr><td><div><table><tr><td><div>Administrar ventas</div></td></tr><tr><td><div>False</div></td></tr><tr><td><div>/Piezas/venta/administrar</div></td></tr></table></div></td></tr></table></div></td></tr></table></div></td></tr><tr><td><div><table><tr><td><div>Estad\xc3\xadsticas</div></td></tr><tr><td><div>False</div></td></tr><tr><td><div>estadisticas</div></td></tr><tr><td><div><table><tr><td><div><table><tr><td><div>Por Pieza</div></td></tr><tr><td><div>False</div></td></tr><tr><td><div>/Piezas/estadisticas/piezas</div></td></tr></table></div></td></tr><tr><td><div><table><tr><td><div>General</div></td></tr><tr><td><div>False</div></td></tr><tr><td><div>/Piezas/estadisticas/estadistica_general</div></td></tr></table></div></td></tr></table></div></td></tr></table></div></td></tr><tr><td><div><table><tr><td><div>Base de datos</div></td></tr><tr><td><div>False</div></td></tr><tr><td><div>base_datos</div></td></tr><tr><td><div><table><tr><td><div><table><tr><td><div>Salvar base de datos</div></td></tr><tr><td><div>False</div></td></tr><tr><td><div>/Piezas/base_datos/salvar</div></td></tr></table></div></td></tr><tr><td><div><table><tr><td><div>Cargar salva</div></td></tr><tr><td><div>False</div></td></tr><tr><td><div>/Piezas/base_datos/cargar</div></td></tr></table></div></td></tr></table></div></td></tr></table></div></td></tr><tr><td><div><table><tr><td><div>Eliminar todo</div></td></tr><tr><td><div>False</div></td></tr><tr><td><div>/Piezas/base_datos/eliminar</div></td></tr></table></div></td></tr></table></div></td></tr><tr><td style="font-weight:bold;vertical-align:top;">meta</td><td style="vertical-align:top;">:</td><td><div><table><tr><td style="font-weight:bold;vertical-align:top;">author</td><td style="vertical-align:top;">:</td><td><div>Your Name &lt;you@example.com&gt;</div></td></tr><tr><td style="font-weight:bold;vertical-align:top;">description</td><td style="vertical-align:top;">:</td><td><div>a cool new app</div></td></tr><tr><td style="font-weight:bold;vertical-align:top;">generator</td><td style="vertical-align:top;">:</td><td><div>Web2py Web Framework</div></td></tr><tr><td style="font-weight:bold;vertical-align:top;">keywords</td><td style="vertical-align:top;">:</td><td><div><table><tr><td><div>web2py</div></td></tr><tr><td><div>python</div></td></tr><tr><td><div>framework</div></td></tr></table></div></td></tr></table></div></td></tr><tr><td style="font-weight:bold;vertical-align:top;">models_to_run</td><td style="vertical-align:top;">:</td><td><div><table><tr><td><div>^\\w+\\.py$</div></td></tr><tr><td><div>^estadisticas/\\w+\\.py$</div></td></tr><tr><td><div>^estadisticas/estadistica_general/\\w+\\.py$</div></td></tr></table></div></td></tr><tr><td style="font-weight:bold;vertical-align:top;">postprocessing</td><td style="vertical-align:top;">:</td><td><div><table></table></div></td></tr><tr><td style="font-weight:bold;vertical-align:top;">session_client</td><td style="vertical-align:top;">:</td><td><div>127.0.0.1</div></td></tr><tr><td style="font-weight:bold;vertical-align:top;">session_cookie_compression_level</td><td style="vertical-align:top;">:</td><td><div>None</div></td></tr><tr><td style="font-weight:bold;vertical-align:top;">session_cookie_expires</td><td style="vertical-align:top;">:</td><td><div>None</div></td></tr><tr><td style="font-weight:bold;vertical-align:top;">session_data_name</td><td style="vertical-align:top;">:</td><td><div>session_data_piezas</div></td></tr><tr><td style="font-weight:bold;vertical-align:top;">session_file</td><td style="vertical-align:top;">:</td><td><div>&lt;open file &#x27;C:\\\\Users\\\\Jorgito\\\\Desktop\\\\web2py_2.18.5_win\\\\applications\\\\Piezas\\\\sessions\\\\040\\\\0f5\\\\127.0.0.1-69d34f41-0912-426e-b4e6-bc576fa048e4&#x27;, mode &#x27;rb+&#x27; at 0x04672D30&gt;</div></td></tr><tr><td style="font-weight:bold;vertical-align:top;">session_filename</td><td style="vertical-align:top;">:</td><td><div>C:\\Users\\Jorgito\\Desktop\\web2py_2.18.5_win\\applications\\Piezas\\sessions\\127.0.0.1-69d34f41-0912-426e-b4e6-bc576fa048e4</div></td></tr><tr><td style="font-weight:bold;vertical-align:top;">session_hash</td><td style="vertical-align:top;">:</td><td><div>e5adec786f4f1a942bba729169b9710f</div></td></tr><tr><td style="font-weight:bold;vertical-align:top;">session_id</td><td style="vertical-align:top;">:</td><td><div>127.0.0.1-69d34f41-0912-426e-b4e6-bc576fa048e4</div></td></tr><tr><td style="font-weight:bold;vertical-align:top;">session_id_name</td><td style="vertical-align:top;">:</td><td><div>session_id_piezas</div></td></tr><tr><td style="font-weight:bold;vertical-align:top;">session_locked</td><td style="vertical-align:top;">:</td><td><div>True</div></td></tr><tr><td style="font-weight:bold;vertical-align:top;">session_masterapp</td><td style="vertical-align:top;">:</td><td><div>Piezas</div></td></tr><tr><td style="font-weight:bold;vertical-align:top;">session_new</td><td style="vertical-align:top;">:</td><td><div>False</div></td></tr><tr><td style="font-weight:bold;vertical-align:top;">session_storage_type</td><td style="vertical-align:top;">:</td><td><div>file</div></td></tr><tr><td style="font-weight:bold;vertical-align:top;">show_toolbar</td><td style="vertical-align:top;">:</td><td><div>False</div></td></tr><tr><td style="font-weight:bold;vertical-align:top;">status</td><td style="vertical-align:top;">:</td><td><div>200</div></td></tr><tr><td style="font-weight:bold;vertical-align:top;">view</td><td style="vertical-align:top;">:</td><td><div>estadisticas/estadistica_general.html</div></td></tr></table></div>'
tRp167
sS'locals'
p168
(dp169
S'rows'
p170
S'<Rows (8)>'
p171
sS'cantidad'
p172
S'23L'
p173
sS'i'
S'3'
sS'j'
S"<Row {'precio_salida': 0.0, 'cantidad': 2L, 'fec...', 'codigo': 'ddsdsd', 'id': 12L, 'unidad': '1'}>"
p174
sS'm'
S"<Row {'fecha_entrada': datetime.date(2020, 3, 6), 'codigo': 'Code123', 'cantidad': 1L}>"
p175
sS'valores'
p176
S'[0, 0, 23L]'
p177
sS'mes'
p178
S'<Rows (8)>'
p179
sS'year'
p180
S'2020'
p181
sS'meses'
p182
g19
sssS'traceback'
p183
S'Traceback (most recent call last):\n  File "C:\\Users\\Jorgito\\Desktop\\web2py_2.18.5_win\\gluon\\restricted.py", line 219, in restricted\n    exec(ccode, environment)\n  File "C:\\Users\\Jorgito\\Desktop\\web2py_2.18.5_win\\applications\\Piezas\\controllers/estadisticas.py", line 138, in <module>\n  File "C:\\Users\\Jorgito\\Desktop\\web2py_2.18.5_win\\gluon\\globals.py", line 421, in <lambda>\n    self._caller = lambda f: f()\n  File "C:\\Users\\Jorgito\\Desktop\\web2py_2.18.5_win\\applications\\Piezas\\controllers/estadisticas.py", line 52, in estadistica_general\n    valores_entradas, marzo = __obtener_estadisticas_general_entradas(year)\n  File "C:\\Users\\Jorgito\\Desktop\\web2py_2.18.5_win\\applications\\Piezas\\controllers/estadisticas.py", line 95, in __obtener_estadisticas_general_entradas\n    meses[i].append({m.fecha_entrada.day: m.cantidad})\nKeyError: 3\n'
p184
s.