(dp1
S'output'
p2
S"<type 'exceptions.TypeError'> 'int' object has no attribute '__getitem__'"
p3
sS'layer'
p4
S'C:\\Users\\Jorgito\\Desktop\\web2py_2.18.5_win\\applications\\Piezas\\views\\estadisticas/estadistica_general.html'
p5
sS'code'
p6
S'response.write(\'<!DOCTYPE html>\\r\\n<!--[if (gt IE 9)|!(IE)]><!-->\\r\\n<html class="no-js" lang="\', escape=False)\nresponse.write(\'es\')\nresponse.write(\'">\\r\\n<!--<![endif]-->\\r\\n\\r\\n<head>\\r\\n\\r\\n    <meta charset="utf-8">\\r\\n    <meta http-equiv="X-UA-Compatible" content="IE=edge\', escape=False)\nresponse.write(not request.is_local and \',chrome=1\' or \'\')\nresponse.write(\'">\\r\\n    <!-- Tell the browser to be responsive to screen width -->\\r\\n    <meta name="viewport" content="width=device-width, initial-scale=1">\\r\\n\\r\\n\\r\\n    <!-- Favicon icon -->\\r\\n    <link rel="shortcut icon" href="\', escape=False)\nresponse.write(URL(\'static\',\'images/logo-final-solo.png\'))\nresponse.write(\'" type="image/x-icon">\\r\\n    <link rel="apple-touch-icon" href="\', escape=False)\nresponse.write(URL(\'static\',\'images/logo-final-solo.png\'))\nresponse.write(\'">\\r\\n\\r\\n    <title>\', escape=False)\nresponse.write(response.title or request.application)\nresponse.write(\'</title>\\r\\n\\r\\n    <meta name="application-name" content="\', escape=False)\nresponse.write(request.application)\nresponse.write(\'">\\r\\n    <!-- Speaking of Google, don\\\'t forget to set your site up:\\r\\n         http://google.com/webmasters -->\\r\\n    <meta name="google-site-verification" content="">\\r\\n\\r\\n    <!-- Bootstrap Core CSS -->\\r\\n    <!-- TODO: Arreglar importar-->\\r\\n    <link rel="stylesheet" href="\', escape=False)\nresponse.write(URL(\'static\',\'vendor/layout_ela/css/lib/bootstrap/bootstrap.min.css\'))\nresponse.write(\'"/>\\r\\n    <link rel="stylesheet" href="\', escape=False)\nresponse.write(URL(\'static\',\'vendor/layout_ela/css/lib/calendar2/semantic.ui.min.css\'))\nresponse.write(\'"/>\\r\\n    <link rel="stylesheet" href="\', escape=False)\nresponse.write(URL(\'static\',\'vendor/layout_ela/css/helper.css\'))\nresponse.write(\'"/>\\r\\n    <link rel="stylesheet" href="\', escape=False)\nresponse.write(URL(\'static\',\'vendor/layout_ela/css/style.css\'))\nresponse.write(\'"/>\\r\\n\\r\\n    <link rel="stylesheet" href="\', escape=False)\nresponse.write(URL(\'static\',\'vendor/font-awesome/css/font-awesome.min.css\'))\nresponse.write(\'"/>\\r\\n    <link rel="stylesheet" href="\', escape=False)\nresponse.write(URL(\'static\',\'css/web2py-bootstrap4.css\'))\nresponse.write(\'"/>\\r\\n    <link rel="stylesheet" href="\', escape=False)\nresponse.write(URL(\'static\',\'vendor/layout_ela/mi_estilo.css\'))\nresponse.write(\'"/>\\r\\n    <script src="\', escape=False)\nresponse.write(URL(\'static\',\'js/modernizr-2.8.3.min.js\'))\nresponse.write(\'"></script>\\r\\n\\r\\n    <link rel="stylesheet" href="\', escape=False)\nresponse.write(URL(\'static\',\'vendor/layout_ela/css/lib/toastr/toastr.min.css\'))\nresponse.write(\'"/>\\r\\n\\r\\n    <!--[if lt IE 9]>\\r\\n    <script src="https:**oss.maxcdn.com/libs/html5shiv/3.7.0/html5shiv.js"></script>\\r\\n    <script src="https:**oss.maxcdn.com/libs/respond.js/1.4.2/respond.min.js"></script>\\r\\n<![endif]-->\\r\\n\\r\\n\\r\\n\', escape=False)\nresponse.write(\'<script type="text/javascript"><!--\\n    // These variables are used by the web2py_ajax_init function in web2py_ajax.js (which is loaded below).\\n    \', escape=False)\nresponse.write(ASSIGNJS(\nw2p_ajax_confirm_message = T(\'Are you sure you want to delete this object?\'),\nw2p_ajax_disable_with_message = T(\'Working...\'),\nw2p_ajax_date_format = T(\'%Y-%m-%d\'),\nw2p_ajax_datetime_format = T(\'%Y-%m-%d %H:%M:%S\'),\najax_error_500 = T.M(\'An error occured, please [[reload %s]] the page\') % URL(args=request.args, vars=request.get_vars)\n))\nresponse.write(\'\\n    //--></script>\\n\', escape=False)\nresponse.files.insert(0,URL(\'static\',\'js/jquery.js\'))\nresponse.files.insert(1,URL(\'static\',\'css/calendar.css\'))\nresponse.files.insert(2,URL(\'static\',\'js/calendar.js\'))\nresponse.files.insert(3,URL(\'static\',\'js/web2py.js\'))\nresponse.include_meta()\nresponse.include_files()\nresponse.write(\'\\n\', escape=False)\nresponse.write(\'\\r\\n    <!-- this includes jquery.js, calendar.js/.css and web2py.js -->\\r\\n\', escape=False)\nresponse.write(\'\\r\\n\\r\\n</head>\\r\\n\\r\\n\\r\\n<body class="fix-header fix-sidebar">\\r\\n\\r\\n<!-- Preloader - style you can find in spinners.css -->\\r\\n<div class="preloader">\\r\\n    <svg class="circular" viewBox="25 25 50 50">\\r\\n        <circle class="path" cx="50" cy="50" r="20" fill="none" stroke-width="2" stroke-miterlimit="10"/>\\r\\n    </svg>\\r\\n</div>\\r\\n\\r\\n<!-- Main wrapper  -->\\r\\n<div id="main-wrapper">\\r\\n\\r\\n    <!-- header header  -->\\r\\n    <div class="header">\\r\\n\\r\\n\\r\\n        <nav class="navbar top-navbar navbar-expand-md navbar-light">\\r\\n\\r\\n            <!-- Logo -->\\r\\n            <div class="navbar-header">\\r\\n                <a class="navbar-brand" href="#">\\r\\n                    <!-- Logo icon -->\\r\\n                    <b style="margin-left: 20px;"><img src="\', escape=False)\nresponse.write(URL(\'static\',\'images/logo-final-solo.png\'))\nresponse.write(\'"\\r\\n                            class="dark-logo" style="width: 40px!important;"/></b>\\r\\n                    <!--End Logo icon -->\\r\\n                    <!-- Logo text -->\\r\\n                        <span class="text-light ml-2"><img src="\', escape=False)\nresponse.write(URL(\'static\',\'images/title.png\'))\nresponse.write(\'" alt="homepage"\\r\\n                            class="dark-logo" style="width: 200px!important;"/></span>\\r\\n                </a>\\r\\n            </div>\\r\\n            <!-- End Logo -->\\r\\n\\r\\n            <div class="navbar-collapse">\\r\\n                <!-- toggle and nav items -->\\r\\n                <ul class="navbar-nav mr-auto mt-md-0">\\r\\n                    <!-- This is  -->\\r\\n                    <li class="nav-item"><a class="nav-link nav-toggler hidden-md-up text-muted  "\\r\\n                                            href="javascript:void(0)"><i class="mdi mdi-menu"></i></a></li>\\r\\n                    <li class="nav-item m-l-10"><a class="nav-link sidebartoggler hidden-sm-down text-muted"\\r\\n                                                   style="visibility: collapse;" href="javascript:void(0)"><i\\r\\n                            class="ti-menu"></i></a></li>\\r\\n\\r\\n                </ul>\\r\\n\\r\\n                \', escape=False)\nif False:\n    response.write(\'\\r\\n                <!-- User profile and search -->\\r\\n                <ul class="navbar-nav my-lg-0">\\r\\n                    <!-- Comment -->\\r\\n\\r\\n                    <!-- End Comment -->\\r\\n\\r\\n                    <!-- Profile -->\\r\\n                    <li class="nav-item dropdown">\\r\\n                        <a class="nav-link dropdown-toggle text-muted  " href="#" data-toggle="dropdown"\\r\\n                           aria-haspopup="true" aria-expanded="false"><img\\r\\n                                src="\', escape=False)\n    response.write(URL(\'static\',\'vendor/layout_ela/images/users/avatar.png\'))\n    response.write(\'" alt="user"\\r\\n                                class="profile-pic"/></a>\\r\\n\\r\\n                        <div class="dropdown-menu dropdown-menu-right animated zoomIn">\\r\\n                            <ul class="dropdown-user">\\r\\n                                <!--li><a href="#"><i class="ti-user"></i> Profile</a></li>\\r\\n                            <li><a href="#"><i class="ti-wallet"></i> Balance</a></li>\\r\\n                            <li><a href="#"><i class="ti-email"></i> Inbox</a></li>\\r\\n                            <li><a href="#"><i class="ti-settings"></i> Setting</a></li-->\\r\\n                                <li><a href="\', escape=False)\n    response.write(URL(\'usuario\', \'detalles\', args=1))\n    response.write(\'"><i\\r\\n                                        class="ti-user"></i>\', escape=False)\n    response.write(" asd")\n    response.write(\'</a></li>\\r\\n                                <li><a href="\', escape=False)\n    response.write(URL(\'default\',\'user/logout\'))\n    response.write(\'"><i class="fa fa-power-off"></i>\\r\\n                                \', escape=False)\n    response.write(T("Cerrar sesi\xc3\xb3n"))\n    response.write(\'</a></li>\\r\\n                            </ul>\\r\\n                        </div>\\r\\n                    </li>\\r\\n\\r\\n                </ul>\\r\\n                \', escape=False)\n    pass\nresponse.write(\'\\r\\n            </div>\\r\\n        </nav>\\r\\n    </div>\\r\\n    <!-- End header header -->\\r\\n\\r\\n\\r\\n    <!-- Left Sidebar  Menu-->\\r\\n    <div class="left-sidebar">\\r\\n        <!-- Sidebar scroll-->\\r\\n        <div class="scroll-sidebar">\\r\\n            <!-- Sidebar navigation-->\\r\\n            <nav class="sidebar-nav">\\r\\n\\r\\n                <ul class="navbar-nav navbar-sidenav bg-navbar" id="exampleAccordion">\\r\\n\\r\\n                    <li class="nav-devider"></li>\\r\\n                    <li class="nav-label">\', escape=False)\nresponse.write(T("Men\xc3\xba"))\nresponse.write(\'</li>\\r\\n\\r\\n                \', escape=False)\nfor _item in response.menu or []:\n    response.write(\'\\r\\n                \', escape=False)\n    if len(_item)< 4 or not _item[3]:\n        response.write(\'\\r\\n                    <li class="nav-item" data-toggle="tooltip" data-placement="right">\\r\\n                        <a href="\', escape=False)\n        response.write(_item[2])\n        response.write(\'">\\r\\n                            <i class="fa \', escape=False)\n        response.write(icon.get(_item[0], " none "))\n        response.write(\'"></i>\\r\\n                            <span class="nav-link-text hide-menu"> \', escape=False)\n        response.write(_item[0])\n        response.write(\'</span>\\r\\n                        </a>\\r\\n                    </li>\\r\\n                \', escape=False)\n    else:\n        response.write(\'\\r\\n                    <li class="nav-item" data-toggle="tooltip" data-placement="right" title="\', escape=False)\n        response.write(_item[0])\n        response.write(\'">\\r\\n\\r\\n                        <a class="has-arrow" data-toggle="collapse" href="#\', escape=False)\n        response.write(_item[2])\n        response.write(\'"\\r\\n                           data-parent="#exampleAccordion">\\r\\n                            <i class="fa \', escape=False)\n        response.write(icon.get(_item[0], " none "))\n        response.write(\'"></i>\\r\\n                            <span class="nav-link-text hide-menu">\', escape=False)\n        response.write(_item[0])\n        response.write(\'</span>\\r\\n                        </a>\\r\\n\\r\\n\\r\\n                        <ul class="collapse" aria-expanded="false" id="\', escape=False)\n        response.write(_item[2])\n        response.write(\'">\\r\\n                            <li>\\r\\n                            \', escape=False)\n        for _subitem in _item[3]:\n            response.write(\'\\r\\n                                <a href="\', escape=False)\n            response.write(_subitem[2])\n            response.write(\'">\', escape=False)\n            response.write(_subitem[0])\n            response.write(\'</a> \', escape=False)\n            pass\n        response.write(\'\\r\\n                            </li>\\r\\n                        </ul>\\r\\n                    </li>\\r\\n                \', escape=False)\n        pass\n    response.write(\' \', escape=False)\n    pass\nresponse.write(\'\\r\\n                </ul>\\r\\n            </nav>\\r\\n            <!-- End Sidebar navigation -->\\r\\n        </div>\\r\\n        <!-- End Sidebar scroll-->\\r\\n    </div>\\r\\n    <!-- End Left Sidebar  -->\\r\\n\\r\\n    <!-- Page wrapper Content -->\\r\\n    <div class="page-wrapper">\\r\\n\\r\\n        <!-- <div class="w2p_flash alert alert-primary">\', escape=False)\nresponse.write(response.flash or \'\')\nresponse.write(\'</div> -->\\r\\n        <!-- Container fluid  -->\\r\\n        <div class="container-fluid">\\r\\n            <!-- Masthead ===================================== -->\\r\\n        \', escape=False)\nresponse.write(\'\\r\\n<link rel="stylesheet" href="\', escape=False)\nresponse.write(URL(\'static\',\'vendor/chart/styles.css\'))\nresponse.write(\'"/>\\r\\n\\r\\n<style>\\r\\n    .detalles {\\r\\n        padding-bottom: 20px;\\r\\n    }\\r\\n\\r\\n    .proveedores {\\r\\n        padding: 0px 2px !important;\\r\\n    }\\r\\n\\r\\n    h3 {\\r\\n        margin-bottom: 3px !important;\\r\\n    }\\r\\n\\r\\n    form {\\r\\n        display: inline-flex !important;\\r\\n    }\\r\\n\\r\\n    /* input[type=submit]{\\r\\n      margin-left: 2px;\\r\\n  } */\\r\\n</style>\\r\\n\', escape=False)\nresponse.write(\'\\r\\n            <!-- Start Page Content -->\\r\\n            <div class="row">\\r\\n                <div class="col-12">\\r\\n                \', escape=False)\nresponse.write(\' \', escape=False)\nresponse.write(\'\\r\\n\\r\\n<div class="card" id="container">\\r\\n    <h3>\', escape=False)\nresponse.write(T("Estad\xc3\xadstica general"))\nresponse.write(\'</h3>\\r\\n    <hr style="margin-top: 0%!important;"/>\\r\\n    <div class="card-body">\\r\\n        <div class="row">\\r\\n            <div class="col-md-12">\\r\\n            \', escape=False)\nfor m in sorted(marzo):\n    response.write(\'\\r\\n            \', escape=False)\n    for d in sorted(marzo[m]):\n        response.write(\'\\r\\n                \', escape=False)\n        response.write(str(d) + ": " + str(m[d]))\n        response.write(\'\\r\\n            \', escape=False)\n        pass\n    response.write(\'\\r\\n            \', escape=False)\n    pass\nresponse.write(\'\\r\\n                <br>\\r\\n            \', escape=False)\nresponse.write(marzo)\nresponse.write(\'\\r\\n            \', escape=False)\nresponse.write(test)\nresponse.write(\'\\r\\n                <h3>Seleccionar a\\xc3\\xb1o</h3>\\r\\n                <br/>\\r\\n                <div class="col-md-5">\\r\\n                \', escape=False)\nresponse.write(form)\nresponse.write(\'\\r\\n                </div>\\r\\n\\r\\n                <!--canvas id="canvas"></canvas-->\\r\\n\\r\\n            \', escape=False)\nif sum(valores_entradas) + sum(valores_ventas) != 0:\n    response.write(\'\\r\\n                <div\\r\\n                        id="chart"\\r\\n                        style="min-width: 310px; height: 400px; margin: 0 auto"\\r\\n                ></div>\\r\\n            \', escape=False)\nelse:\n    response.write(\'\\r\\n                <div class="col-md-12 mt-5 mb-5 p-4" style="text-align: center;">\\r\\n                    <h2>No existen ventas ni entradas en el a\\xc3\\xb1o \', escape=False)\n    response.write(year)\n    response.write(\'</h2>\\r\\n                </div>\\r\\n            \', escape=False)\n    pass\nresponse.write(\'\\r\\n            </div>\\r\\n        </div>\\r\\n    </div>\\r\\n</div>\\r\\n\', escape=False)\nresponse.write(\'\\r\\n\', escape=False)\nresponse.write(\' \', escape=False)\nresponse.write(response.toolbar() if response.show_toolbar else \'\')\nresponse.write(\'\\r\\n                </div>\\r\\n            </div>\\r\\n            <!-- End PAge Content -->\\r\\n        </div>\\r\\n        <!-- End Container fluid  -->\\r\\n\\r\\n\\r\\n        <!-- footer -->\\r\\n        <!--footer class="footer"> \\xc2\\xa9 2018 All rights reserved. Template designed by <a\\r\\n            href="https://colorlib.com">Colorlib</a></footer>\\r\\n    <!- End footer -->\\r\\n\\r\\n    \', escape=False)\nresponse.write(\'\\r\\n        <!-- this is default footer -->\\r\\n        <footer class="footer container-fluid">\\r\\n            <div class="copyright pull-left">\', escape=False)\nresponse.write(T(\'Copyright\'))\nresponse.write(\'\\r\\n                &#169; \', escape=False)\nresponse.write(request.now.year)\nresponse.write(\' \', escape=False)\nresponse.write(T(\'. Desarrollado en\'))\nresponse.write(\'\\r\\n                <a style="color: rgb(255, 240, 103);" href="http://www.web2py.com/">web2py</a>\\r\\n                \', escape=False)\nresponse.write(T(\' por SupremoCode.\'))\nresponse.write(\'\\r\\n            </div>\\r\\n                \\r\\n\\r\\n        </footer>\\r\\n    \', escape=False)\nresponse.write(\'\\r\\n    </div>\\r\\n    <!-- End Page wrapper  -->\\r\\n\\r\\n</div>\\r\\n<!-- End Wrapper -->\\r\\n\\r\\n<!-- All Jquery -->\\r\\n<script src="\', escape=False)\nresponse.write(URL(\'static\',\'vendor/layout_ela/js/lib/jquery/jquery.min.js\'))\nresponse.write(\'"></script>\\r\\n<!-- Bootstrap tether Core JavaScript -->\\r\\n<script src="\', escape=False)\nresponse.write(URL(\'static\',\'vendor/layout_ela/js/lib/bootstrap/js/popper.min.js\'))\nresponse.write(\'"></script>\\r\\n<script src="\', escape=False)\nresponse.write(URL(\'static\',\'vendor/layout_ela/js/lib/bootstrap/js/bootstrap.min.js\'))\nresponse.write(\'"></script>\\r\\n<!-- slimscrollbar scrollbar JavaScript -->\\r\\n<script src="\', escape=False)\nresponse.write(URL(\'static\',\'vendor/layout_ela/js/jquery.slimscroll.js\'))\nresponse.write(\'"></script>\\r\\n<!--Menu sidebar -->\\r\\n<script src="\', escape=False)\nresponse.write(URL(\'static\',\'vendor/layout_ela/js/sidebarmenu.js\'))\nresponse.write(\'"></script>\\r\\n<!--stickey kit -->\\r\\n<script src="\', escape=False)\nresponse.write(URL(\'static\',\'vendor/layout_ela/js/lib/sticky-kit-master/dist/sticky-kit.min.js\'))\nresponse.write(\'"></script>\\r\\n<!--Custom JavaScript -->\\r\\n<script src="\', escape=False)\nresponse.write(URL(\'static\',\'vendor/layout_ela/js/scripts.js\'))\nresponse.write(\'"></script>\\r\\n\\r\\n<!-- The javascript web 2 PY =============================== -->\\r\\n\\r\\n<script src="\', escape=False)\nresponse.write(URL(\'static\',\'js/web2py-bootstrap4.js\'))\nresponse.write(\'"></script>\\r\\n\\r\\n\\r\\n\', escape=False)\nresponse.write(\'\\r\\n<script src="\', escape=False)\nresponse.write(URL(\'static\',\'vendor/highchart/highcharts.js\'))\nresponse.write(\'"></script>\\r\\n<script src="\', escape=False)\nresponse.write(URL(\'static\',\'vendor/highchart/series-label.js\'))\nresponse.write(\'"></script>\\r\\n<script src="\', escape=False)\nresponse.write(URL(\'static\',\'vendor/highchart/exporting.js\'))\nresponse.write(\'"></script>\\r\\n<script src="\', escape=False)\nresponse.write(URL(\'static\',\'vendor/highchart/offline-exporting.js\'))\nresponse.write(\'"></script>\\r\\n<script src="\', escape=False)\nresponse.write(URL(\'static\',\'vendor/highchart/export-data.js\'))\nresponse.write(\'"></script>\\r\\n\\r\\n<script src="\', escape=False)\nresponse.write(URL(\'static\',\'vendor/highchart/data.js\'))\nresponse.write(\'"></script>\\r\\n<script src="\', escape=False)\nresponse.write(URL(\'static\',\'vendor/highchart/drilldown.js\'))\nresponse.write(\'"></script>\\r\\n<!-- <script src="\', escape=False)\nresponse.write(URL(\'static\',\'vendor/chart/configuration.js\'))\nresponse.write(\'"></script> -->\\r\\n\\r\\n<script>\\r\\n    let meses = [\\r\\n        "Enero",\\r\\n        "Febrero",\\r\\n        "Marzo",\\r\\n        "Abril",\\r\\n        "Mayo",\\r\\n        "Junio",\\r\\n        "Julio",\\r\\n        "Agosto",\\r\\n        "Septiembre",\\r\\n        "Octubre",\\r\\n        "Noviembre",\\r\\n        "Diciembre"\\r\\n    ];\\r\\n    let entradas = [];\\r\\n    let ventas = [];\\r\\n\\r\\n    let entradasY = [];\\r\\n    let ventasY = [];\\r\\n\\r\\n    /*\\r\\n    Configuracion de variables python\\r\\n\\r\\n\', escape=False)\ncontador = 0\nresponse.write(\'\\r\\n*/\\r\\n\\r\\n    //\', escape=False)\nfor i in range(12):\n    response.write(\'\\r\\n    entradasY.push(parseInt("\', escape=False)\n    response.write(valores_entradas[i])\n    response.write(\'"));\\r\\n    ventasY.push(parseInt("\', escape=False)\n    response.write(valores_ventas[i])\n    response.write(\'"));\\r\\n    //\', escape=False)\n    pass\nresponse.write(\'\\r\\n\\r\\n\\r\\n\\r\\n    for (let index = 0; index < meses.length; index++) {\\r\\n        entradas.push({\\r\\n            name: meses[index],\\r\\n            y: entradasY[index],\\r\\n            drilldown: meses[index] + "Entradas"\\r\\n        });\\r\\n\\r\\n        ventas.push({\\r\\n            name: meses[index],\\r\\n            y: ventasY[index],\\r\\n            drilldown: meses[index] + "Ventas"\\r\\n        });\\r\\n    }\\r\\n\\r\\n    Highcharts.chart("chart", {\\r\\n        chart: {\\r\\n            type: "line"\\r\\n        },\\r\\n        title: {\\r\\n            text: "Entradas y Ventas de Piezas, \', escape=False)\nresponse.write(year)\nresponse.write(\'"\\r\\n        },\\r\\n        // subtitle: {\\r\\n        //   text: "Source: thesolarfoundation.com"\\r\\n        // },\\r\\n        xAxis: {\\r\\n            type: "category"\\r\\n        },\\r\\n\\r\\n        yAxis: {\\r\\n            title: {\\r\\n                text: "Valores alcanzados"\\r\\n            }\\r\\n        },\\r\\n        legend: {\\r\\n            layout: "vertical",\\r\\n            align: "right",\\r\\n            verticalAlign: "middle"\\r\\n        },\\r\\n\\r\\n        plotOptions: {\\r\\n            //   series: {\\r\\n            //     label: {\\r\\n            //       connectorAllowed: false\\r\\n            //     },\\r\\n            //     pointStart: 2010\\r\\n            //   }\\r\\n            line: {\\r\\n                dataLabels: {\\r\\n                    enabled: false\\r\\n                },\\r\\n                enableMouseTracking: true\\r\\n            }\\r\\n        },\\r\\n\\r\\n        series: [\\r\\n            {\\r\\n                name: "Entradas",\\r\\n                data: entradas,\\r\\n            },\\r\\n            {\\r\\n                name: "Ventas",\\r\\n                data: ventas,\\r\\n                color: "red"\\r\\n            }\\r\\n            //   {\\r\\n            //     name: "Sales & Distribution",\\r\\n            //     data: [11744, 17722, 16005, 19771, 20185, 24377, 32147, 39387]\\r\\n            //   },\\r\\n            //   {\\r\\n            //     name: "Project Development",\\r\\n            //     data: [null, null, 7988, 12169, 15112, 22452, 34400, 34227]\\r\\n            //   },\\r\\n            //   {\\r\\n            //     name: "Other",\\r\\n            //     data: [12908, 5948, 8105, 11248, 8989, 11816, 18274, 18111]\\r\\n            //   }\\r\\n        ],\\r\\n\\r\\n        drilldown: {\\r\\n            series: [\\r\\n                {\\r\\n                    name: "Entradas",\\r\\n                    id: "EneroEntradas",\\r\\n                    data: [\\r\\n                        ["v65.0", 0.1],\\r\\n                        ["v64.0", 1.3],\\r\\n                        ["v63.0", 53.02]\\r\\n                    ]\\r\\n                }\\r\\n            ]\\r\\n        },\\r\\n\\r\\n        responsive: {\\r\\n            rules: [\\r\\n                {\\r\\n                    condition: {\\r\\n                        maxWidth: 500\\r\\n                    },\\r\\n                    chartOptions: {\\r\\n                        legend: {\\r\\n                            layout: "horizontal",\\r\\n                            align: "center",\\r\\n                            verticalAlign: "bottom"\\r\\n                        }\\r\\n                    }\\r\\n                }\\r\\n            ]\\r\\n        }\\r\\n    });\\r\\n</script>\\r\\n\', escape=False)\nresponse.write(\' \', escape=False)\nif response.google_analytics_id:\n    response.write(\'\\r\\n<!-- Analytics ==================================== -->\\r\\n<script src="\', escape=False)\n    response.write(URL(\'static\',\'js/analytics.min.js\'))\n    response.write(\'"></script>\\r\\n<script type="text/javascript">\\r\\n    analytics.initialize({\\r\\n        \\\'Google Analytics\\\': {\\r\\n            trackingId: \\\'\', escape=False)\n    response.write(response.google_analytics_id)\n    response.write("\'\\r\\n        }\\r\\n    });\\r\\n</script>\\r\\n", escape=False)\n    pass\nresponse.write(\'\\r\\n\\r\\n<script src="\', escape=False)\nresponse.write(URL(\'static\',\'vendor/layout_ela/js/lib/toastr/toastr.min.js\'))\nresponse.write(\'"></script>\\r\\n\\r\\n\', escape=False)\nif response.flash:\n    response.write("\\r\\n<script>\\r\\n$(document).ready(function() {\\r\\n    toastr.info(\'", escape=False)\n    response.write(response.flash)\n    response.write(\'\\\',\\\'Mensaje\\\',{\\r\\n        timeOut: 5000,\\r\\n        "closeButton": true,\\r\\n        "debug": false,\\r\\n        "newestOnTop": true,\\r\\n        "progressBar": true,\\r\\n        "positionClass": "toast-top-right",\\r\\n        "preventDuplicates": true,\\r\\n        "onclick": null,\\r\\n        "showDuration": "300",\\r\\n        "hideDuration": "1000",\\r\\n        "extendedTimeOut": "1000",\\r\\n        "showEasing": "swing",\\r\\n        "hideEasing": "linear",\\r\\n        "showMethod": "fadeIn",\\r\\n        "hideMethod": "fadeOut",\\r\\n        "tapToDismiss": false\\r\\n\\r\\n    })\\r\\n});\\r\\n</script>\\r\\n\', escape=False)\n    pass\nresponse.write(\'\\r\\n</body>\\r\\n\\r\\n</html>\', escape=False)'
p7
sS'snapshot'
p8
(dp9
S'exception'
p10
(dp11
S'__getslice__'
p12
S"<method-wrapper '__getslice__' of exceptions.TypeError object>"
p13
sS'__str__'
p14
S"<method-wrapper '__str__' of exceptions.TypeError object>"
p15
sS'__reduce__'
p16
S'<built-in method __reduce__ of exceptions.TypeError object>'
p17
sS'__dict__'
p18
S'{}'
p19
sS'message'
p20
S'"\'int\' object has no attribute \'__getitem__\'"'
p21
sS'__sizeof__'
p22
S'<built-in method __sizeof__ of exceptions.TypeError object>'
p23
sS'__init__'
p24
S"<method-wrapper '__init__' of exceptions.TypeError object>"
p25
sS'__setattr__'
p26
S"<method-wrapper '__setattr__' of exceptions.TypeError object>"
p27
sS'__reduce_ex__'
p28
S'<built-in method __reduce_ex__ of exceptions.TypeError object>'
p29
sS'__new__'
p30
S'<built-in method __new__ of type object>'
p31
sS'__format__'
p32
S'<built-in method __format__ of exceptions.TypeError object>'
p33
sS'__class__'
p34
S"<type 'exceptions.TypeError'>"
p35
sS'__doc__'
p36
S"'Inappropriate argument type.'"
p37
sS'__getitem__'
p38
S"<method-wrapper '__getitem__' of exceptions.TypeError object>"
p39
sS'__setstate__'
p40
S'<built-in method __setstate__ of exceptions.TypeError object>'
p41
sS'__getattribute__'
p42
S"<method-wrapper '__getattribute__' of exceptions.TypeError object>"
p43
sS'args'
p44
S'("\'int\' object has no attribute \'__getitem__\'",)'
p45
sS'__subclasshook__'
p46
S'<built-in method __subclasshook__ of type object>'
p47
sS'__unicode__'
p48
S'<built-in method __unicode__ of exceptions.TypeError object>'
p49
sS'__delattr__'
p50
S"<method-wrapper '__delattr__' of exceptions.TypeError object>"
p51
sS'__repr__'
p52
S"<method-wrapper '__repr__' of exceptions.TypeError object>"
p53
sS'__hash__'
p54
S"<method-wrapper '__hash__' of exceptions.TypeError object>"
p55
ssS'evalue'
p56
S"'int' object has no attribute '__getitem__'"
p57
sS'request'
p58
cgluon.html
XML_unpickle
p59
(S'sB\xbc\x00\x00<div><table><tr><td style="font-weight:bold;vertical-align:top;">ajax</td><td style="vertical-align:top;">:</td><td><div>False</div></td></tr><tr><td style="font-weight:bold;vertical-align:top;">application</td><td style="vertical-align:top;">:</td><td><div>Piezas</div></td></tr><tr><td style="font-weight:bold;vertical-align:top;">args</td><td style="vertical-align:top;">:</td><td><div><table></table></div></td></tr><tr><td style="font-weight:bold;vertical-align:top;">cid</td><td style="vertical-align:top;">:</td><td><div>None</div></td></tr><tr><td style="font-weight:bold;vertical-align:top;">client</td><td style="vertical-align:top;">:</td><td><div>127.0.0.1</div></td></tr><tr><td style="font-weight:bold;vertical-align:top;">controller</td><td style="vertical-align:top;">:</td><td><div>estadisticas</div></td></tr><tr><td style="font-weight:bold;vertical-align:top;">cookies</td><td style="vertical-align:top;">:</td><td><div><table><tr><td style="font-weight:bold;vertical-align:top;">csrftoken</td><td style="vertical-align:top;">:</td><td><div>Ysrao3zw7CcIB7ITsZIJdqJuuTdPGjeziNY5zaQaPaGBQj7cAllhk5ayUOym5DAI<table><tr><td style="font-weight:bold;vertical-align:top;">comment</td><td style="vertical-align:top;">:</td><td><div></div></td></tr><tr><td style="font-weight:bold;vertical-align:top;">domain</td><td style="vertical-align:top;">:</td><td><div></div></td></tr><tr><td style="font-weight:bold;vertical-align:top;">expires</td><td style="vertical-align:top;">:</td><td><div></div></td></tr><tr><td style="font-weight:bold;vertical-align:top;">httponly</td><td style="vertical-align:top;">:</td><td><div></div></td></tr><tr><td style="font-weight:bold;vertical-align:top;">max-age</td><td style="vertical-align:top;">:</td><td><div></div></td></tr><tr><td style="font-weight:bold;vertical-align:top;">path</td><td style="vertical-align:top;">:</td><td><div></div></td></tr><tr><td style="font-weight:bold;vertical-align:top;">samesite</td><td style="vertical-align:top;">:</td><td><div></div></td></tr><tr><td style="font-weight:bold;vertical-align:top;">secure</td><td style="vertical-align:top;">:</td><td><div></div></td></tr><tr><td style="font-weight:bold;vertical-align:top;">version</td><td style="vertical-align:top;">:</td><td><div></div></td></tr></table></div></td></tr><tr><td style="font-weight:bold;vertical-align:top;">examples_session</td><td style="vertical-align:top;">:</td><td><div>eyJ0eXAiOiJKV1QiLCJhbGciOiJIUzI1NiJ9.eyJ1dWlkIjoiMDgwNGM2NTAtOTkwMy00MjFjLTk4ZGMtMmEwMzNlMjRlOWYzIiwic2VjdXJlIjpmYWxzZSwidGltZXN0YW1wIjoxNTgxNjI1ODU3LjI2ODc1NTJ9.W8kAo_zuPXBE6wvRDU1UWu2pbRJ-_qPy04mxh8gKblU<table><tr><td style="font-weight:bold;vertical-align:top;">comment</td><td style="vertical-align:top;">:</td><td><div></div></td></tr><tr><td style="font-weight:bold;vertical-align:top;">domain</td><td style="vertical-align:top;">:</td><td><div></div></td></tr><tr><td style="font-weight:bold;vertical-align:top;">expires</td><td style="vertical-align:top;">:</td><td><div></div></td></tr><tr><td style="font-weight:bold;vertical-align:top;">httponly</td><td style="vertical-align:top;">:</td><td><div></div></td></tr><tr><td style="font-weight:bold;vertical-align:top;">max-age</td><td style="vertical-align:top;">:</td><td><div></div></td></tr><tr><td style="font-weight:bold;vertical-align:top;">path</td><td style="vertical-align:top;">:</td><td><div></div></td></tr><tr><td style="font-weight:bold;vertical-align:top;">samesite</td><td style="vertical-align:top;">:</td><td><div></div></td></tr><tr><td style="font-weight:bold;vertical-align:top;">secure</td><td style="vertical-align:top;">:</td><td><div></div></td></tr><tr><td style="font-weight:bold;vertical-align:top;">version</td><td style="vertical-align:top;">:</td><td><div></div></td></tr></table></div></td></tr><tr><td style="font-weight:bold;vertical-align:top;">myfeed_session</td><td style="vertical-align:top;">:</td><td><div>eyJ0eXAiOiJKV1QiLCJhbGciOiJIUzI1NiJ9.eyJ1dWlkIjoiZTgwYWVlMTEtOTU4Yy00NDExLTgwMWEtNWEyMGE5ZTkwYTVkIiwic2VjdXJlIjpmYWxzZSwidGltZXN0YW1wIjoxNTgxNjI1NzEzLjYxMzAyMjYsInVzZXIiOnsiaWQiOjF9fQ.f-w-rzmR9gB-3HxgP12-aIrYLoca2B5Csz8UdgCbwLM<table><tr><td style="font-weight:bold;vertical-align:top;">comment</td><td style="vertical-align:top;">:</td><td><div></div></td></tr><tr><td style="font-weight:bold;vertical-align:top;">domain</td><td style="vertical-align:top;">:</td><td><div></div></td></tr><tr><td style="font-weight:bold;vertical-align:top;">expires</td><td style="vertical-align:top;">:</td><td><div></div></td></tr><tr><td style="font-weight:bold;vertical-align:top;">httponly</td><td style="vertical-align:top;">:</td><td><div></div></td></tr><tr><td style="font-weight:bold;vertical-align:top;">max-age</td><td style="vertical-align:top;">:</td><td><div></div></td></tr><tr><td style="font-weight:bold;vertical-align:top;">path</td><td style="vertical-align:top;">:</td><td><div></div></td></tr><tr><td style="font-weight:bold;vertical-align:top;">samesite</td><td style="vertical-align:top;">:</td><td><div></div></td></tr><tr><td style="font-weight:bold;vertical-align:top;">secure</td><td style="vertical-align:top;">:</td><td><div></div></td></tr><tr><td style="font-weight:bold;vertical-align:top;">version</td><td style="vertical-align:top;">:</td><td><div></div></td></tr></table></div></td></tr><tr><td style="font-weight:bold;vertical-align:top;">session_id_admin</td><td style="vertical-align:top;">:</td><td><div>127.0.0.1-04cc2a6e-60ef-46cb-9463-786fd16c5dee<table><tr><td style="font-weight:bold;vertical-align:top;">comment</td><td style="vertical-align:top;">:</td><td><div></div></td></tr><tr><td style="font-weight:bold;vertical-align:top;">domain</td><td style="vertical-align:top;">:</td><td><div></div></td></tr><tr><td style="font-weight:bold;vertical-align:top;">expires</td><td style="vertical-align:top;">:</td><td><div></div></td></tr><tr><td style="font-weight:bold;vertical-align:top;">httponly</td><td style="vertical-align:top;">:</td><td><div></div></td></tr><tr><td style="font-weight:bold;vertical-align:top;">max-age</td><td style="vertical-align:top;">:</td><td><div></div></td></tr><tr><td style="font-weight:bold;vertical-align:top;">path</td><td style="vertical-align:top;">:</td><td><div></div></td></tr><tr><td style="font-weight:bold;vertical-align:top;">samesite</td><td style="vertical-align:top;">:</td><td><div></div></td></tr><tr><td style="font-weight:bold;vertical-align:top;">secure</td><td style="vertical-align:top;">:</td><td><div></div></td></tr><tr><td style="font-weight:bold;vertical-align:top;">version</td><td style="vertical-align:top;">:</td><td><div></div></td></tr></table></div></td></tr><tr><td style="font-weight:bold;vertical-align:top;">session_id_app</td><td style="vertical-align:top;">:</td><td><div>127.0.0.1-f441168c-6f52-4ff2-93fa-2119bc9aa5e1<table><tr><td style="font-weight:bold;vertical-align:top;">comment</td><td style="vertical-align:top;">:</td><td><div></div></td></tr><tr><td style="font-weight:bold;vertical-align:top;">domain</td><td style="vertical-align:top;">:</td><td><div></div></td></tr><tr><td style="font-weight:bold;vertical-align:top;">expires</td><td style="vertical-align:top;">:</td><td><div></div></td></tr><tr><td style="font-weight:bold;vertical-align:top;">httponly</td><td style="vertical-align:top;">:</td><td><div></div></td></tr><tr><td style="font-weight:bold;vertical-align:top;">max-age</td><td style="vertical-align:top;">:</td><td><div></div></td></tr><tr><td style="font-weight:bold;vertical-align:top;">path</td><td style="vertical-align:top;">:</td><td><div></div></td></tr><tr><td style="font-weight:bold;vertical-align:top;">samesite</td><td style="vertical-align:top;">:</td><td><div></div></td></tr><tr><td style="font-weight:bold;vertical-align:top;">secure</td><td style="vertical-align:top;">:</td><td><div></div></td></tr><tr><td style="font-weight:bold;vertical-align:top;">version</td><td style="vertical-align:top;">:</td><td><div></div></td></tr></table></div></td></tr><tr><td style="font-weight:bold;vertical-align:top;">session_id_facturas</td><td style="vertical-align:top;">:</td><td><div>127.0.0.1-1ad5de01-9a49-4a47-8e6b-50e9a43d43e9<table><tr><td style="font-weight:bold;vertical-align:top;">comment</td><td style="vertical-align:top;">:</td><td><div></div></td></tr><tr><td style="font-weight:bold;vertical-align:top;">domain</td><td style="vertical-align:top;">:</td><td><div></div></td></tr><tr><td style="font-weight:bold;vertical-align:top;">expires</td><td style="vertical-align:top;">:</td><td><div></div></td></tr><tr><td style="font-weight:bold;vertical-align:top;">httponly</td><td style="vertical-align:top;">:</td><td><div></div></td></tr><tr><td style="font-weight:bold;vertical-align:top;">max-age</td><td style="vertical-align:top;">:</td><td><div></div></td></tr><tr><td style="font-weight:bold;vertical-align:top;">path</td><td style="vertical-align:top;">:</td><td><div></div></td></tr><tr><td style="font-weight:bold;vertical-align:top;">samesite</td><td style="vertical-align:top;">:</td><td><div></div></td></tr><tr><td style="font-weight:bold;vertical-align:top;">secure</td><td style="vertical-align:top;">:</td><td><div></div></td></tr><tr><td style="font-weight:bold;vertical-align:top;">version</td><td style="vertical-align:top;">:</td><td><div></div></td></tr></table></div></td></tr><tr><td style="font-weight:bold;vertical-align:top;">session_id_horusmb</td><td style="vertical-align:top;">:</td><td><div>127.0.0.1-d23b41e6-830d-4be9-bf2e-826f720c6b9a<table><tr><td style="font-weight:bold;vertical-align:top;">comment</td><td style="vertical-align:top;">:</td><td><div></div></td></tr><tr><td style="font-weight:bold;vertical-align:top;">domain</td><td style="vertical-align:top;">:</td><td><div></div></td></tr><tr><td style="font-weight:bold;vertical-align:top;">expires</td><td style="vertical-align:top;">:</td><td><div></div></td></tr><tr><td style="font-weight:bold;vertical-align:top;">httponly</td><td style="vertical-align:top;">:</td><td><div></div></td></tr><tr><td style="font-weight:bold;vertical-align:top;">max-age</td><td style="vertical-align:top;">:</td><td><div></div></td></tr><tr><td style="font-weight:bold;vertical-align:top;">path</td><td style="vertical-align:top;">:</td><td><div></div></td></tr><tr><td style="font-weight:bold;vertical-align:top;">samesite</td><td style="vertical-align:top;">:</td><td><div></div></td></tr><tr><td style="font-weight:bold;vertical-align:top;">secure</td><td style="vertical-align:top;">:</td><td><div></div></td></tr><tr><td style="font-weight:bold;vertical-align:top;">version</td><td style="vertical-align:top;">:</td><td><div></div></td></tr></table></div></td></tr><tr><td style="font-weight:bold;vertical-align:top;">session_id_ia</td><td style="vertical-align:top;">:</td><td><div>127.0.0.1-9be620f4-d986-4580-b108-2a135c69126c<table><tr><td style="font-weight:bold;vertical-align:top;">comment</td><td style="vertical-align:top;">:</td><td><div></div></td></tr><tr><td style="font-weight:bold;vertical-align:top;">domain</td><td style="vertical-align:top;">:</td><td><div></div></td></tr><tr><td style="font-weight:bold;vertical-align:top;">expires</td><td style="vertical-align:top;">:</td><td><div></div></td></tr><tr><td style="font-weight:bold;vertical-align:top;">httponly</td><td style="vertical-align:top;">:</td><td><div></div></td></tr><tr><td style="font-weight:bold;vertical-align:top;">max-age</td><td style="vertical-align:top;">:</td><td><div></div></td></tr><tr><td style="font-weight:bold;vertical-align:top;">path</td><td style="vertical-align:top;">:</td><td><div></div></td></tr><tr><td style="font-weight:bold;vertical-align:top;">samesite</td><td style="vertical-align:top;">:</td><td><div></div></td></tr><tr><td style="font-weight:bold;vertical-align:top;">secure</td><td style="vertical-align:top;">:</td><td><div></div></td></tr><tr><td style="font-weight:bold;vertical-align:top;">version</td><td style="vertical-align:top;">:</td><td><div></div></td></tr></table></div></td></tr><tr><td style="font-weight:bold;vertical-align:top;">session_id_mapas</td><td style="vertical-align:top;">:</td><td><div>127.0.0.1-2f856de5-5951-44cd-b005-01a6989beb50<table><tr><td style="font-weight:bold;vertical-align:top;">comment</td><td style="vertical-align:top;">:</td><td><div></div></td></tr><tr><td style="font-weight:bold;vertical-align:top;">domain</td><td style="vertical-align:top;">:</td><td><div></div></td></tr><tr><td style="font-weight:bold;vertical-align:top;">expires</td><td style="vertical-align:top;">:</td><td><div></div></td></tr><tr><td style="font-weight:bold;vertical-align:top;">httponly</td><td style="vertical-align:top;">:</td><td><div></div></td></tr><tr><td style="font-weight:bold;vertical-align:top;">max-age</td><td style="vertical-align:top;">:</td><td><div></div></td></tr><tr><td style="font-weight:bold;vertical-align:top;">path</td><td style="vertical-align:top;">:</td><td><div></div></td></tr><tr><td style="font-weight:bold;vertical-align:top;">samesite</td><td style="vertical-align:top;">:</td><td><div></div></td></tr><tr><td style="font-weight:bold;vertical-align:top;">secure</td><td style="vertical-align:top;">:</td><td><div></div></td></tr><tr><td style="font-weight:bold;vertical-align:top;">version</td><td style="vertical-align:top;">:</td><td><div></div></td></tr></table></div></td></tr><tr><td style="font-weight:bold;vertical-align:top;">session_id_pieza</td><td style="vertical-align:top;">:</td><td><div>127.0.0.1-340f81d0-505e-480b-8759-dc3c1318a712<table><tr><td style="font-weight:bold;vertical-align:top;">comment</td><td style="vertical-align:top;">:</td><td><div></div></td></tr><tr><td style="font-weight:bold;vertical-align:top;">domain</td><td style="vertical-align:top;">:</td><td><div></div></td></tr><tr><td style="font-weight:bold;vertical-align:top;">expires</td><td style="vertical-align:top;">:</td><td><div></div></td></tr><tr><td style="font-weight:bold;vertical-align:top;">httponly</td><td style="vertical-align:top;">:</td><td><div></div></td></tr><tr><td style="font-weight:bold;vertical-align:top;">max-age</td><td style="vertical-align:top;">:</td><td><div></div></td></tr><tr><td style="font-weight:bold;vertical-align:top;">path</td><td style="vertical-align:top;">:</td><td><div></div></td></tr><tr><td style="font-weight:bold;vertical-align:top;">samesite</td><td style="vertical-align:top;">:</td><td><div></div></td></tr><tr><td style="font-weight:bold;vertical-align:top;">secure</td><td style="vertical-align:top;">:</td><td><div></div></td></tr><tr><td style="font-weight:bold;vertical-align:top;">version</td><td style="vertical-align:top;">:</td><td><div></div></td></tr></table></div></td></tr><tr><td style="font-weight:bold;vertical-align:top;">session_id_piezas</td><td style="vertical-align:top;">:</td><td><div>127.0.0.1-69d34f41-0912-426e-b4e6-bc576fa048e4<table><tr><td style="font-weight:bold;vertical-align:top;">comment</td><td style="vertical-align:top;">:</td><td><div></div></td></tr><tr><td style="font-weight:bold;vertical-align:top;">domain</td><td style="vertical-align:top;">:</td><td><div></div></td></tr><tr><td style="font-weight:bold;vertical-align:top;">expires</td><td style="vertical-align:top;">:</td><td><div></div></td></tr><tr><td style="font-weight:bold;vertical-align:top;">httponly</td><td style="vertical-align:top;">:</td><td><div></div></td></tr><tr><td style="font-weight:bold;vertical-align:top;">max-age</td><td style="vertical-align:top;">:</td><td><div></div></td></tr><tr><td style="font-weight:bold;vertical-align:top;">path</td><td style="vertical-align:top;">:</td><td><div></div></td></tr><tr><td style="font-weight:bold;vertical-align:top;">samesite</td><td style="vertical-align:top;">:</td><td><div></div></td></tr><tr><td style="font-weight:bold;vertical-align:top;">secure</td><td style="vertical-align:top;">:</td><td><div></div></td></tr><tr><td style="font-weight:bold;vertical-align:top;">version</td><td style="vertical-align:top;">:</td><td><div></div></td></tr></table></div></td></tr><tr><td style="font-weight:bold;vertical-align:top;">session_id_scoplam</td><td style="vertical-align:top;">:</td><td><div>127.0.0.1-a93fc12e-4117-4278-86f5-e08efd6cee37<table><tr><td style="font-weight:bold;vertical-align:top;">comment</td><td style="vertical-align:top;">:</td><td><div></div></td></tr><tr><td style="font-weight:bold;vertical-align:top;">domain</td><td style="vertical-align:top;">:</td><td><div></div></td></tr><tr><td style="font-weight:bold;vertical-align:top;">expires</td><td style="vertical-align:top;">:</td><td><div></div></td></tr><tr><td style="font-weight:bold;vertical-align:top;">httponly</td><td style="vertical-align:top;">:</td><td><div></div></td></tr><tr><td style="font-weight:bold;vertical-align:top;">max-age</td><td style="vertical-align:top;">:</td><td><div></div></td></tr><tr><td style="font-weight:bold;vertical-align:top;">path</td><td style="vertical-align:top;">:</td><td><div></div></td></tr><tr><td style="font-weight:bold;vertical-align:top;">samesite</td><td style="vertical-align:top;">:</td><td><div></div></td></tr><tr><td style="font-weight:bold;vertical-align:top;">secure</td><td style="vertical-align:top;">:</td><td><div></div></td></tr><tr><td style="font-weight:bold;vertical-align:top;">version</td><td style="vertical-align:top;">:</td><td><div></div></td></tr></table></div></td></tr><tr><td style="font-weight:bold;vertical-align:top;">session_id_solapin</td><td style="vertical-align:top;">:</td><td><div>127.0.0.1-35d504f0-009e-4a77-9e8c-1bb4cba102fc<table><tr><td style="font-weight:bold;vertical-align:top;">comment</td><td style="vertical-align:top;">:</td><td><div></div></td></tr><tr><td style="font-weight:bold;vertical-align:top;">domain</td><td style="vertical-align:top;">:</td><td><div></div></td></tr><tr><td style="font-weight:bold;vertical-align:top;">expires</td><td style="vertical-align:top;">:</td><td><div></div></td></tr><tr><td style="font-weight:bold;vertical-align:top;">httponly</td><td style="vertical-align:top;">:</td><td><div></div></td></tr><tr><td style="font-weight:bold;vertical-align:top;">max-age</td><td style="vertical-align:top;">:</td><td><div></div></td></tr><tr><td style="font-weight:bold;vertical-align:top;">path</td><td style="vertical-align:top;">:</td><td><div></div></td></tr><tr><td style="font-weight:bold;vertical-align:top;">samesite</td><td style="vertical-align:top;">:</td><td><div></div></td></tr><tr><td style="font-weight:bold;vertical-align:top;">secure</td><td style="vertical-align:top;">:</td><td><div></div></td></tr><tr><td style="font-weight:bold;vertical-align:top;">version</td><td style="vertical-align:top;">:</td><td><div></div></td></tr></table></div></td></tr><tr><td style="font-weight:bold;vertical-align:top;">session_id_test</td><td style="vertical-align:top;">:</td><td><div>127.0.0.1-20495d67-d40b-42cc-b227-bf46895b1600<table><tr><td style="font-weight:bold;vertical-align:top;">comment</td><td style="vertical-align:top;">:</td><td><div></div></td></tr><tr><td style="font-weight:bold;vertical-align:top;">domain</td><td style="vertical-align:top;">:</td><td><div></div></td></tr><tr><td style="font-weight:bold;vertical-align:top;">expires</td><td style="vertical-align:top;">:</td><td><div></div></td></tr><tr><td style="font-weight:bold;vertical-align:top;">httponly</td><td style="vertical-align:top;">:</td><td><div></div></td></tr><tr><td style="font-weight:bold;vertical-align:top;">max-age</td><td style="vertical-align:top;">:</td><td><div></div></td></tr><tr><td style="font-weight:bold;vertical-align:top;">path</td><td style="vertical-align:top;">:</td><td><div></div></td></tr><tr><td style="font-weight:bold;vertical-align:top;">samesite</td><td style="vertical-align:top;">:</td><td><div></div></td></tr><tr><td style="font-weight:bold;vertical-align:top;">secure</td><td style="vertical-align:top;">:</td><td><div></div></td></tr><tr><td style="font-weight:bold;vertical-align:top;">version</td><td style="vertical-align:top;">:</td><td><div></div></td></tr></table></div></td></tr><tr><td style="font-weight:bold;vertical-align:top;">session_id_vue_jose</td><td style="vertical-align:top;">:</td><td><div>127.0.0.1-d135bfb7-15bd-48dd-ac20-f561047ac795<table><tr><td style="font-weight:bold;vertical-align:top;">comment</td><td style="vertical-align:top;">:</td><td><div></div></td></tr><tr><td style="font-weight:bold;vertical-align:top;">domain</td><td style="vertical-align:top;">:</td><td><div></div></td></tr><tr><td style="font-weight:bold;vertical-align:top;">expires</td><td style="vertical-align:top;">:</td><td><div></div></td></tr><tr><td style="font-weight:bold;vertical-align:top;">httponly</td><td style="vertical-align:top;">:</td><td><div></div></td></tr><tr><td style="font-weight:bold;vertical-align:top;">max-age</td><td style="vertical-align:top;">:</td><td><div></div></td></tr><tr><td style="font-weight:bold;vertical-align:top;">path</td><td style="vertical-align:top;">:</td><td><div></div></td></tr><tr><td style="font-weight:bold;vertical-align:top;">samesite</td><td style="vertical-align:top;">:</td><td><div></div></td></tr><tr><td style="font-weight:bold;vertical-align:top;">secure</td><td style="vertical-align:top;">:</td><td><div></div></td></tr><tr><td style="font-weight:bold;vertical-align:top;">version</td><td style="vertical-align:top;">:</td><td><div></div></td></tr></table></div></td></tr><tr><td style="font-weight:bold;vertical-align:top;">session_id_welcome</td><td style="vertical-align:top;">:</td><td><div>127.0.0.1-ddbddfbc-dc47-4307-8a42-cbc0bc00085e<table><tr><td style="font-weight:bold;vertical-align:top;">comment</td><td style="vertical-align:top;">:</td><td><div></div></td></tr><tr><td style="font-weight:bold;vertical-align:top;">domain</td><td style="vertical-align:top;">:</td><td><div></div></td></tr><tr><td style="font-weight:bold;vertical-align:top;">expires</td><td style="vertical-align:top;">:</td><td><div></div></td></tr><tr><td style="font-weight:bold;vertical-align:top;">httponly</td><td style="vertical-align:top;">:</td><td><div></div></td></tr><tr><td style="font-weight:bold;vertical-align:top;">max-age</td><td style="vertical-align:top;">:</td><td><div></div></td></tr><tr><td style="font-weight:bold;vertical-align:top;">path</td><td style="vertical-align:top;">:</td><td><div></div></td></tr><tr><td style="font-weight:bold;vertical-align:top;">samesite</td><td style="vertical-align:top;">:</td><td><div></div></td></tr><tr><td style="font-weight:bold;vertical-align:top;">secure</td><td style="vertical-align:top;">:</td><td><div></div></td></tr><tr><td style="font-weight:bold;vertical-align:top;">version</td><td style="vertical-align:top;">:</td><td><div></div></td></tr></table></div></td></tr><tr><td style="font-weight:bold;vertical-align:top;">todo_session</td><td style="vertical-align:top;">:</td><td><div>eyJ0eXAiOiJKV1QiLCJhbGciOiJIUzI1NiJ9.eyJ1dWlkIjoiYTUwYzg4YzUtNGIxYy00MTY1LTgxM2UtZmJhMjY3NmI3MTA0Iiwic2VjdXJlIjpmYWxzZSwiY291bnRlciI6MiwidXNlciI6eyJpZCI6MX0sInRpbWVzdGFtcCI6MTU3ODU3NjM5OS42NjIwMTZ9.Ym1o_Vip3ue1brWatfG_B_pmTPvQ5VaUsWe1dhFoMAo<table><tr><td style="font-weight:bold;vertical-align:top;">comment</td><td style="vertical-align:top;">:</td><td><div></div></td></tr><tr><td style="font-weight:bold;vertical-align:top;">domain</td><td style="vertical-align:top;">:</td><td><div></div></td></tr><tr><td style="font-weight:bold;vertical-align:top;">expires</td><td style="vertical-align:top;">:</td><td><div></div></td></tr><tr><td style="font-weight:bold;vertical-align:top;">httponly</td><td style="vertical-align:top;">:</td><td><div></div></td></tr><tr><td style="font-weight:bold;vertical-align:top;">max-age</td><td style="vertical-align:top;">:</td><td><div></div></td></tr><tr><td style="font-weight:bold;vertical-align:top;">path</td><td style="vertical-align:top;">:</td><td><div></div></td></tr><tr><td style="font-weight:bold;vertical-align:top;">samesite</td><td style="vertical-align:top;">:</td><td><div></div></td></tr><tr><td style="font-weight:bold;vertical-align:top;">secure</td><td style="vertical-align:top;">:</td><td><div></div></td></tr><tr><td style="font-weight:bold;vertical-align:top;">version</td><td style="vertical-align:top;">:</td><td><div></div></td></tr></table></div></td></tr></table></div></td></tr><tr><td style="font-weight:bold;vertical-align:top;">env</td><td style="vertical-align:top;">:</td><td><div><table><tr><td style="font-weight:bold;vertical-align:top;">HTTP_ACCEPT</td><td style="vertical-align:top;">:</td><td><div>text/html,application/xhtml+xml,application/xml;q=0.9,image/webp,*/*;q=0.8</div></td></tr><tr><td style="font-weight:bold;vertical-align:top;">HTTP_ACCEPT_ENCODING</td><td style="vertical-align:top;">:</td><td><div>gzip, deflate</div></td></tr><tr><td style="font-weight:bold;vertical-align:top;">HTTP_ACCEPT_LANGUAGE</td><td style="vertical-align:top;">:</td><td><div>es-ES,es;q=0.8,en-US;q=0.5,en;q=0.3</div></td></tr><tr><td style="font-weight:bold;vertical-align:top;">HTTP_CACHE_CONTROL</td><td style="vertical-align:top;">:</td><td><div>max-age=0</div></td></tr><tr><td style="font-weight:bold;vertical-align:top;">HTTP_CONNECTION</td><td style="vertical-align:top;">:</td><td><div>keep-alive</div></td></tr><tr><td style="font-weight:bold;vertical-align:top;">HTTP_COOKIE</td><td style="vertical-align:top;">:</td><td><div>csrftoken=Ysrao3zw7CcIB7ITsZIJdqJuuTdPGjeziNY5zaQaPaGBQj7cAllhk5ayUOym5DAI; session_id_mapas=127.0.0.1-2f856de5-5951-44cd-b005-01a6989beb50; _dashboard_session=eyJ0eXAiOiJKV1QiLCJhbGciOiJIUzI1NiJ9.eyJ1dWlkIjoiNDA1ZmExMTYtNjMzNC00N2M1LTk2MDktNzU2NDQzOTU1ODA1Iiwic2VjdXJlIjpmYWxzZSwidGltZXN0YW1wIjoxNTgxNjI1NzcxLjgzOTIyMDMsInVzZXIiOnsiaWQiOjF9fQ.9rTbyZ7T6Saf9F5CRTq-WznjZnhMaRTWqTEo2M0K9d0; _scaffold_session=eyJ0eXAiOiJKV1QiLCJhbGciOiJIUzI1NiJ9.eyJ1dWlkIjoiOWY1OWQyN2MtODA0ZS00YTUxLTgzMWMtM2Y0MmM3NGEwZDQ2Iiwic2VjdXJlIjpmYWxzZSwidGltZXN0YW1wIjoxNTgxNjI1ODE4LjQ5NTc3MTQsInVzZXIiOm51bGx9.oQ57dmVyq4m3bo3S5QJDcIz3Ruy0Mu5Hg3ggyJXnhqs; todo_session=eyJ0eXAiOiJKV1QiLCJhbGciOiJIUzI1NiJ9.eyJ1dWlkIjoiYTUwYzg4YzUtNGIxYy00MTY1LTgxM2UtZmJhMjY3NmI3MTA0Iiwic2VjdXJlIjpmYWxzZSwiY291bnRlciI6MiwidXNlciI6eyJpZCI6MX0sInRpbWVzdGFtcCI6MTU3ODU3NjM5OS42NjIwMTZ9.Ym1o_Vip3ue1brWatfG_B_pmTPvQ5VaUsWe1dhFoMAo; session_id_vue_jose=127.0.0.1-d135bfb7-15bd-48dd-ac20-f561047ac795; session_id_solapin=127.0.0.1-35d504f0-009e-4a77-9e8c-1bb4cba102fc; session_id_ia=127.0.0.1-9be620f4-d986-4580-b108-2a135c69126c; session_id_horusmb=127.0.0.1-d23b41e6-830d-4be9-bf2e-826f720c6b9a; myfeed_session=eyJ0eXAiOiJKV1QiLCJhbGciOiJIUzI1NiJ9.eyJ1dWlkIjoiZTgwYWVlMTEtOTU4Yy00NDExLTgwMWEtNWEyMGE5ZTkwYTVkIiwic2VjdXJlIjpmYWxzZSwidGltZXN0YW1wIjoxNTgxNjI1NzEzLjYxMzAyMjYsInVzZXIiOnsiaWQiOjF9fQ.f-w-rzmR9gB-3HxgP12-aIrYLoca2B5Csz8UdgCbwLM; examples_session=eyJ0eXAiOiJKV1QiLCJhbGciOiJIUzI1NiJ9.eyJ1dWlkIjoiMDgwNGM2NTAtOTkwMy00MjFjLTk4ZGMtMmEwMzNlMjRlOWYzIiwic2VjdXJlIjpmYWxzZSwidGltZXN0YW1wIjoxNTgxNjI1ODU3LjI2ODc1NTJ9.W8kAo_zuPXBE6wvRDU1UWu2pbRJ-_qPy04mxh8gKblU; session_id_facturas=127.0.0.1-1ad5de01-9a49-4a47-8e6b-50e9a43d43e9; session_id_app=127.0.0.1-f441168c-6f52-4ff2-93fa-2119bc9aa5e1; session_id_test=127.0.0.1-20495d67-d40b-42cc-b227-bf46895b1600; session_id_scoplam=127.0.0.1-a93fc12e-4117-4278-86f5-e08efd6cee37; session_id_pieza=127.0.0.1-340f81d0-505e-480b-8759-dc3c1318a712; session_id_admin=127.0.0.1-04cc2a6e-60ef-46cb-9463-786fd16c5dee; session_id_piezas=127.0.0.1-69d34f41-0912-426e-b4e6-bc576fa048e4; session_id_welcome=127.0.0.1-ddbddfbc-dc47-4307-8a42-cbc0bc00085e</div></td></tr><tr><td style="font-weight:bold;vertical-align:top;">HTTP_HOST</td><td style="vertical-align:top;">:</td><td><div>127.0.0.1:8000</div></td></tr><tr><td style="font-weight:bold;vertical-align:top;">HTTP_REFERER</td><td style="vertical-align:top;">:</td><td><div>http://127.0.0.1:8000/Piezas/pieza/administrar</div></td></tr><tr><td style="font-weight:bold;vertical-align:top;">HTTP_UPGRADE_INSECURE_REQUESTS</td><td style="vertical-align:top;">:</td><td><div>1</div></td></tr><tr><td style="font-weight:bold;vertical-align:top;">HTTP_USER_AGENT</td><td style="vertical-align:top;">:</td><td><div>Mozilla/5.0 (Windows NT 10.0; Win64; x64; rv:72.0) Gecko/20100101 Firefox/72.0</div></td></tr><tr><td style="font-weight:bold;vertical-align:top;">PATH_INFO</td><td style="vertical-align:top;">:</td><td><div>/Piezas/estadisticas/estadistica_general</div></td></tr><tr><td style="font-weight:bold;vertical-align:top;">QUERY_STRING</td><td style="vertical-align:top;">:</td><td><div></div></td></tr><tr><td style="font-weight:bold;vertical-align:top;">REMOTE_ADDR</td><td style="vertical-align:top;">:</td><td><div>127.0.0.1</div></td></tr><tr><td style="font-weight:bold;vertical-align:top;">REMOTE_PORT</td><td style="vertical-align:top;">:</td><td><div>6292</div></td></tr><tr><td style="font-weight:bold;vertical-align:top;">REQUEST_METHOD</td><td style="vertical-align:top;">:</td><td><div>GET</div></td></tr><tr><td style="font-weight:bold;vertical-align:top;">SCRIPT_NAME</td><td style="vertical-align:top;">:</td><td><div></div></td></tr><tr><td style="font-weight:bold;vertical-align:top;">SERVER_NAME</td><td style="vertical-align:top;">:</td><td><div>DESKTOP-HTUJN4Q</div></td></tr><tr><td style="font-weight:bold;vertical-align:top;">SERVER_PORT</td><td style="vertical-align:top;">:</td><td><div>8000</div></td></tr><tr><td style="font-weight:bold;vertical-align:top;">SERVER_PROTOCOL</td><td style="vertical-align:top;">:</td><td><div>HTTP/1.1</div></td></tr><tr><td style="font-weight:bold;vertical-align:top;">SERVER_SOFTWARE</td><td style="vertical-align:top;">:</td><td><div>Rocket 1.2.6</div></td></tr><tr><td style="font-weight:bold;vertical-align:top;">app_folders</td><td style="vertical-align:top;">:</td><td><div>set([&#x27;C:\\\\Users\\\\Jorgito\\\\Desktop\\\\web2py_2.18.5_win\\\\applications\\\\welcome&#x27;, &#x27;C:\\\\Users\\\\Jorgito\\\\Desktop\\\\web2py_2.18.5_win\\\\applications\\\\Piezas&#x27;, &#x27;C:\\\\Users\\\\Jorgito\\\\Desktop\\\\web2py_2.18.5_win\\\\applications\\\\admin&#x27;])</div></td></tr><tr><td style="font-weight:bold;vertical-align:top;">applications_parent</td><td style="vertical-align:top;">:</td><td><div>C:\\Users\\Jorgito\\Desktop\\web2py_2.18.5_win</div></td></tr><tr><td style="font-weight:bold;vertical-align:top;">cmd_args</td><td style="vertical-align:top;">:</td><td><div><table></table></div></td></tr><tr><td style="font-weight:bold;vertical-align:top;">cmd_options</td><td style="vertical-align:top;">:</td><td><div>&lt;Values at 0x3542878: {&#x27;verbose&#x27;: False, &#x27;ip&#x27;: &#x27;127.0.0.1&#x27;, &#x27;debuglevel&#x27;: 30, &#x27;with_scheduler&#x27;: False, &#x27;shutdown_timeout&#x27;: 5, &#x27;taskbar&#x27;: False, &#x27;with_coverage&#x27;: False, &#x27;pid_filename&#x27;: &#x27;httpserver.pid&#x27;, &#x27;maxthreads&#x27;: None, &#x27;softcron&#x27;: False, &#x27;server_name&#x27;: &#x27;DESKTOP-HTUJN4Q&#x27;, &#x27;bpython&#x27;: False, &#x27;nogui&#x27;: False, &#x27;port&#x27;: 8000, &#x27;print_errors&#x27;: False, &#x27;extcron&#x27;: False, &#x27;runcron&#x27;: False, &#x27;run_system_tests&#x27;: False, &#x27;test&#x27;: None, &#x27;folder&#x27;: &#x27;C:\\\\Users\\\\Jorgito\\\\Desktop\\\\web2py_2.18.5_win&#x27;, &#x27;config&#x27;: &#x27;&#x27;, &#x27;minthreads&#x27;: None, &#x27;shell&#x27;: None, &#x27;run&#x27;: &#x27;&#x27;, &#x27;log_filename&#x27;: &#x27;httpserver.log&#x27;, &#x27;profiler_dir&#x27;: None, &#x27;args&#x27;: [], &#x27;socket_timeout&#x27;: 5, &#x27;ssl_ca_certificate&#x27;: None, &#x27;scheduler&#x27;: None, &#x27;interfaces&#x27;: None, &#x27;ssl_private_key&#x27;: &#x27;&#x27;, &#x27;gae&#x27;: None, &#x27;password&#x27;: &#x27;******&#x27;, &#x27;request_queue_size&#x27;: 5, &#x27;ssl_certificate&#x27;: &#x27;&#x27;, &#x27;cronjob&#x27;: False, &#x27;numthreads&#x27;: None, &#x27;quiet&#x27;: False, &#x27;import_models&#x27;: False, &#x27;timeout&#x27;: 10, &#x27;plain&#x27;: False, &#x27;nobanner&#x27;: False}&gt;</div></td></tr><tr><td style="font-weight:bold;vertical-align:top;">db_sessions</td><td style="vertical-align:top;">:</td><td><div>set([])</div></td></tr><tr><td style="font-weight:bold;vertical-align:top;">debugging</td><td style="vertical-align:top;">:</td><td><div>False</div></td></tr><tr><td style="font-weight:bold;vertical-align:top;">gluon_parent</td><td style="vertical-align:top;">:</td><td><div>C:\\Users\\Jorgito\\Desktop\\web2py_2.18.5_win</div></td></tr><tr><td style="font-weight:bold;vertical-align:top;">http_accept</td><td style="vertical-align:top;">:</td><td><div>text/html,application/xhtml+xml,application/xml;q=0.9,image/webp,*/*;q=0.8</div></td></tr><tr><td style="font-weight:bold;vertical-align:top;">http_accept_encoding</td><td style="vertical-align:top;">:</td><td><div>gzip, deflate</div></td></tr><tr><td style="font-weight:bold;vertical-align:top;">http_accept_language</td><td style="vertical-align:top;">:</td><td><div>es-ES,es;q=0.8,en-US;q=0.5,en;q=0.3</div></td></tr><tr><td style="font-weight:bold;vertical-align:top;">http_cache_control</td><td style="vertical-align:top;">:</td><td><div>max-age=0</div></td></tr><tr><td style="font-weight:bold;vertical-align:top;">http_connection</td><td style="vertical-align:top;">:</td><td><div>keep-alive</div></td></tr><tr><td style="font-weight:bold;vertical-align:top;">http_cookie</td><td style="vertical-align:top;">:</td><td><div>csrftoken=Ysrao3zw7CcIB7ITsZIJdqJuuTdPGjeziNY5zaQaPaGBQj7cAllhk5ayUOym5DAI; session_id_mapas=127.0.0.1-2f856de5-5951-44cd-b005-01a6989beb50; _dashboard_session=eyJ0eXAiOiJKV1QiLCJhbGciOiJIUzI1NiJ9.eyJ1dWlkIjoiNDA1ZmExMTYtNjMzNC00N2M1LTk2MDktNzU2NDQzOTU1ODA1Iiwic2VjdXJlIjpmYWxzZSwidGltZXN0YW1wIjoxNTgxNjI1NzcxLjgzOTIyMDMsInVzZXIiOnsiaWQiOjF9fQ.9rTbyZ7T6Saf9F5CRTq-WznjZnhMaRTWqTEo2M0K9d0; _scaffold_session=eyJ0eXAiOiJKV1QiLCJhbGciOiJIUzI1NiJ9.eyJ1dWlkIjoiOWY1OWQyN2MtODA0ZS00YTUxLTgzMWMtM2Y0MmM3NGEwZDQ2Iiwic2VjdXJlIjpmYWxzZSwidGltZXN0YW1wIjoxNTgxNjI1ODE4LjQ5NTc3MTQsInVzZXIiOm51bGx9.oQ57dmVyq4m3bo3S5QJDcIz3Ruy0Mu5Hg3ggyJXnhqs; todo_session=eyJ0eXAiOiJKV1QiLCJhbGciOiJIUzI1NiJ9.eyJ1dWlkIjoiYTUwYzg4YzUtNGIxYy00MTY1LTgxM2UtZmJhMjY3NmI3MTA0Iiwic2VjdXJlIjpmYWxzZSwiY291bnRlciI6MiwidXNlciI6eyJpZCI6MX0sInRpbWVzdGFtcCI6MTU3ODU3NjM5OS42NjIwMTZ9.Ym1o_Vip3ue1brWatfG_B_pmTPvQ5VaUsWe1dhFoMAo; session_id_vue_jose=127.0.0.1-d135bfb7-15bd-48dd-ac20-f561047ac795; session_id_solapin=127.0.0.1-35d504f0-009e-4a77-9e8c-1bb4cba102fc; session_id_ia=127.0.0.1-9be620f4-d986-4580-b108-2a135c69126c; session_id_horusmb=127.0.0.1-d23b41e6-830d-4be9-bf2e-826f720c6b9a; myfeed_session=eyJ0eXAiOiJKV1QiLCJhbGciOiJIUzI1NiJ9.eyJ1dWlkIjoiZTgwYWVlMTEtOTU4Yy00NDExLTgwMWEtNWEyMGE5ZTkwYTVkIiwic2VjdXJlIjpmYWxzZSwidGltZXN0YW1wIjoxNTgxNjI1NzEzLjYxMzAyMjYsInVzZXIiOnsiaWQiOjF9fQ.f-w-rzmR9gB-3HxgP12-aIrYLoca2B5Csz8UdgCbwLM; examples_session=eyJ0eXAiOiJKV1QiLCJhbGciOiJIUzI1NiJ9.eyJ1dWlkIjoiMDgwNGM2NTAtOTkwMy00MjFjLTk4ZGMtMmEwMzNlMjRlOWYzIiwic2VjdXJlIjpmYWxzZSwidGltZXN0YW1wIjoxNTgxNjI1ODU3LjI2ODc1NTJ9.W8kAo_zuPXBE6wvRDU1UWu2pbRJ-_qPy04mxh8gKblU; session_id_facturas=127.0.0.1-1ad5de01-9a49-4a47-8e6b-50e9a43d43e9; session_id_app=127.0.0.1-f441168c-6f52-4ff2-93fa-2119bc9aa5e1; session_id_test=127.0.0.1-20495d67-d40b-42cc-b227-bf46895b1600; session_id_scoplam=127.0.0.1-a93fc12e-4117-4278-86f5-e08efd6cee37; session_id_pieza=127.0.0.1-340f81d0-505e-480b-8759-dc3c1318a712; session_id_admin=127.0.0.1-04cc2a6e-60ef-46cb-9463-786fd16c5dee; session_id_piezas=127.0.0.1-69d34f41-0912-426e-b4e6-bc576fa048e4; session_id_welcome=127.0.0.1-ddbddfbc-dc47-4307-8a42-cbc0bc00085e</div></td></tr><tr><td style="font-weight:bold;vertical-align:top;">http_host</td><td style="vertical-align:top;">:</td><td><div>127.0.0.1:8000</div></td></tr><tr><td style="font-weight:bold;vertical-align:top;">http_referer</td><td style="vertical-align:top;">:</td><td><div>http://127.0.0.1:8000/Piezas/pieza/administrar</div></td></tr><tr><td style="font-weight:bold;vertical-align:top;">http_upgrade_insecure_requests</td><td style="vertical-align:top;">:</td><td><div>1</div></td></tr><tr><td style="font-weight:bold;vertical-align:top;">http_user_agent</td><td style="vertical-align:top;">:</td><td><div>Mozilla/5.0 (Windows NT 10.0; Win64; x64; rv:72.0) Gecko/20100101 Firefox/72.0</div></td></tr><tr><td style="font-weight:bold;vertical-align:top;">is_jython</td><td style="vertical-align:top;">:</td><td><div>False</div></td></tr><tr><td style="font-weight:bold;vertical-align:top;">is_py2</td><td style="vertical-align:top;">:</td><td><div>True</div></td></tr><tr><td style="font-weight:bold;vertical-align:top;">is_pypy</td><td style="vertical-align:top;">:</td><td><div>False</div></td></tr><tr><td style="font-weight:bold;vertical-align:top;">is_source</td><td style="vertical-align:top;">:</td><td><div>False</div></td></tr><tr><td style="font-weight:bold;vertical-align:top;">local_hosts</td><td style="vertical-align:top;">:</td><td><div><table><tr><td><div>DESKTOP-HTUJN4Q.unica.cu</div></td></tr><tr><td><div>10.18.5.109</div></td></tr><tr><td><div>DESKTOP-HTUJN4Q</div></td></tr><tr><td><div>::ffff:127.0.0.1</div></td></tr><tr><td><div>::1</div></td></tr><tr><td><div>fe80::8548:f993:3c0e:6b30%5</div></td></tr><tr><td><div>127.0.0.1</div></td></tr></table></div></td></tr><tr><td style="font-weight:bold;vertical-align:top;">path_info</td><td style="vertical-align:top;">:</td><td><div>/Piezas/estadisticas/estadistica_general</div></td></tr><tr><td style="font-weight:bold;vertical-align:top;">query_string</td><td style="vertical-align:top;">:</td><td><div></div></td></tr><tr><td style="font-weight:bold;vertical-align:top;">remote_addr</td><td style="vertical-align:top;">:</td><td><div>127.0.0.1</div></td></tr><tr><td style="font-weight:bold;vertical-align:top;">remote_port</td><td style="vertical-align:top;">:</td><td><div>6292</div></td></tr><tr><td style="font-weight:bold;vertical-align:top;">request_method</td><td style="vertical-align:top;">:</td><td><div>GET</div></td></tr><tr><td style="font-weight:bold;vertical-align:top;">request_uri</td><td style="vertical-align:top;">:</td><td><div>/Piezas/estadisticas/estadistica_general</div></td></tr><tr><td style="font-weight:bold;vertical-align:top;">script_name</td><td style="vertical-align:top;">:</td><td><div></div></td></tr><tr><td style="font-weight:bold;vertical-align:top;">server_name</td><td style="vertical-align:top;">:</td><td><div>DESKTOP-HTUJN4Q</div></td></tr><tr><td style="font-weight:bold;vertical-align:top;">server_port</td><td style="vertical-align:top;">:</td><td><div>8000</div></td></tr><tr><td style="font-weight:bold;vertical-align:top;">server_protocol</td><td style="vertical-align:top;">:</td><td><div>HTTP/1.1</div></td></tr><tr><td style="font-weight:bold;vertical-align:top;">server_software</td><td style="vertical-align:top;">:</td><td><div>Rocket 1.2.6</div></td></tr><tr><td style="font-weight:bold;vertical-align:top;">web2py_original_uri</td><td style="vertical-align:top;">:</td><td><div>/Piezas/estadisticas/estadistica_general</div></td></tr><tr><td style="font-weight:bold;vertical-align:top;">web2py_path</td><td style="vertical-align:top;">:</td><td><div>C:\\Users\\Jorgito\\Desktop\\web2py_2.18.5_win</div></td></tr><tr><td style="font-weight:bold;vertical-align:top;">web2py_version</td><td style="vertical-align:top;">:</td><td><div>2.18.5-stable+timestamp.2019.04.08.04.22.03</div></td></tr><tr><td style="font-weight:bold;vertical-align:top;">wsgi.errors</td><td style="vertical-align:top;">:</td><td><div>&lt;open file &#x27;&lt;stderr&gt;&#x27;, mode &#x27;w&#x27; at 0x0232D0D0&gt;</div></td></tr><tr><td style="font-weight:bold;vertical-align:top;">wsgi.file_wrapper</td><td style="vertical-align:top;">:</td><td><div>&lt;class wsgiref.util.FileWrapper at 0x03667AB0&gt;</div></td></tr><tr><td style="font-weight:bold;vertical-align:top;">wsgi.input</td><td style="vertical-align:top;">:</td><td><div>&lt;socket._fileobject object at 0x0444EFB0&gt;</div></td></tr><tr><td style="font-weight:bold;vertical-align:top;">wsgi.multiprocess</td><td style="vertical-align:top;">:</td><td><div>False</div></td></tr><tr><td style="font-weight:bold;vertical-align:top;">wsgi.multithread</td><td style="vertical-align:top;">:</td><td><div>True</div></td></tr><tr><td style="font-weight:bold;vertical-align:top;">wsgi.run_once</td><td style="vertical-align:top;">:</td><td><div>False</div></td></tr><tr><td style="font-weight:bold;vertical-align:top;">wsgi.url_scheme</td><td style="vertical-align:top;">:</td><td><div>http</div></td></tr><tr><td style="font-weight:bold;vertical-align:top;">wsgi.version</td><td style="vertical-align:top;">:</td><td><div><table><tr><td><div>1</div></td></tr><tr><td><div>0</div></td></tr></table></div></td></tr><tr><td style="font-weight:bold;vertical-align:top;">wsgi_errors</td><td style="vertical-align:top;">:</td><td><div>&lt;open file &#x27;&lt;stderr&gt;&#x27;, mode &#x27;w&#x27; at 0x0232D0D0&gt;</div></td></tr><tr><td style="font-weight:bold;vertical-align:top;">wsgi_file_wrapper</td><td style="vertical-align:top;">:</td><td><div>&lt;class wsgiref.util.FileWrapper at 0x03667AB0&gt;</div></td></tr><tr><td style="font-weight:bold;vertical-align:top;">wsgi_input</td><td style="vertical-align:top;">:</td><td><div>&lt;socket._fileobject object at 0x0444EFB0&gt;</div></td></tr><tr><td style="font-weight:bold;vertical-align:top;">wsgi_multiprocess</td><td style="vertical-align:top;">:</td><td><div>False</div></td></tr><tr><td style="font-weight:bold;vertical-align:top;">wsgi_multithread</td><td style="vertical-align:top;">:</td><td><div>True</div></td></tr><tr><td style="font-weight:bold;vertical-align:top;">wsgi_run_once</td><td style="vertical-align:top;">:</td><td><div>False</div></td></tr><tr><td style="font-weight:bold;vertical-align:top;">wsgi_url_scheme</td><td style="vertical-align:top;">:</td><td><div>http</div></td></tr><tr><td style="font-weight:bold;vertical-align:top;">wsgi_version</td><td style="vertical-align:top;">:</td><td><div><table><tr><td><div>1</div></td></tr><tr><td><div>0</div></td></tr></table></div></td></tr></table></div></td></tr><tr><td style="font-weight:bold;vertical-align:top;">extension</td><td style="vertical-align:top;">:</td><td><div>html</div></td></tr><tr><td style="font-weight:bold;vertical-align:top;">folder</td><td style="vertical-align:top;">:</td><td><div>C:\\Users\\Jorgito\\Desktop\\web2py_2.18.5_win\\applications\\Piezas</div></td></tr><tr><td style="font-weight:bold;vertical-align:top;">function</td><td style="vertical-align:top;">:</td><td><div>estadistica_general</div></td></tr><tr><td style="font-weight:bold;vertical-align:top;">global_settings</td><td style="vertical-align:top;">:</td><td><div><table><tr><td style="font-weight:bold;vertical-align:top;">app_folders</td><td style="vertical-align:top;">:</td><td><div>set([&#x27;C:\\\\Users\\\\Jorgito\\\\Desktop\\\\web2py_2.18.5_win\\\\applications\\\\welcome&#x27;, &#x27;C:\\\\Users\\\\Jorgito\\\\Desktop\\\\web2py_2.18.5_win\\\\applications\\\\Piezas&#x27;, &#x27;C:\\\\Users\\\\Jorgito\\\\Desktop\\\\web2py_2.18.5_win\\\\applications\\\\admin&#x27;])</div></td></tr><tr><td style="font-weight:bold;vertical-align:top;">applications_parent</td><td style="vertical-align:top;">:</td><td><div>C:\\Users\\Jorgito\\Desktop\\web2py_2.18.5_win</div></td></tr><tr><td style="font-weight:bold;vertical-align:top;">cmd_args</td><td style="vertical-align:top;">:</td><td><div><table></table></div></td></tr><tr><td style="font-weight:bold;vertical-align:top;">cmd_options</td><td style="vertical-align:top;">:</td><td><div>&lt;Values at 0x3542878: {&#x27;verbose&#x27;: False, &#x27;ip&#x27;: &#x27;127.0.0.1&#x27;, &#x27;debuglevel&#x27;: 30, &#x27;with_scheduler&#x27;: False, &#x27;shutdown_timeout&#x27;: 5, &#x27;taskbar&#x27;: False, &#x27;with_coverage&#x27;: False, &#x27;pid_filename&#x27;: &#x27;httpserver.pid&#x27;, &#x27;maxthreads&#x27;: None, &#x27;softcron&#x27;: False, &#x27;server_name&#x27;: &#x27;DESKTOP-HTUJN4Q&#x27;, &#x27;bpython&#x27;: False, &#x27;nogui&#x27;: False, &#x27;port&#x27;: 8000, &#x27;print_errors&#x27;: False, &#x27;extcron&#x27;: False, &#x27;runcron&#x27;: False, &#x27;run_system_tests&#x27;: False, &#x27;test&#x27;: None, &#x27;folder&#x27;: &#x27;C:\\\\Users\\\\Jorgito\\\\Desktop\\\\web2py_2.18.5_win&#x27;, &#x27;config&#x27;: &#x27;&#x27;, &#x27;minthreads&#x27;: None, &#x27;shell&#x27;: None, &#x27;run&#x27;: &#x27;&#x27;, &#x27;log_filename&#x27;: &#x27;httpserver.log&#x27;, &#x27;profiler_dir&#x27;: None, &#x27;args&#x27;: [], &#x27;socket_timeout&#x27;: 5, &#x27;ssl_ca_certificate&#x27;: None, &#x27;scheduler&#x27;: None, &#x27;interfaces&#x27;: None, &#x27;ssl_private_key&#x27;: &#x27;&#x27;, &#x27;gae&#x27;: None, &#x27;password&#x27;: &#x27;******&#x27;, &#x27;request_queue_size&#x27;: 5, &#x27;ssl_certificate&#x27;: &#x27;&#x27;, &#x27;cronjob&#x27;: False, &#x27;numthreads&#x27;: None, &#x27;quiet&#x27;: False, &#x27;import_models&#x27;: False, &#x27;timeout&#x27;: 10, &#x27;plain&#x27;: False, &#x27;nobanner&#x27;: False}&gt;</div></td></tr><tr><td style="font-weight:bold;vertical-align:top;">db_sessions</td><td style="vertical-align:top;">:</td><td><div>set([])</div></td></tr><tr><td style="font-weight:bold;vertical-align:top;">debugging</td><td style="vertical-align:top;">:</td><td><div>False</div></td></tr><tr><td style="font-weight:bold;vertical-align:top;">gluon_parent</td><td style="vertical-align:top;">:</td><td><div>C:\\Users\\Jorgito\\Desktop\\web2py_2.18.5_win</div></td></tr><tr><td style="font-weight:bold;vertical-align:top;">is_jython</td><td style="vertical-align:top;">:</td><td><div>False</div></td></tr><tr><td style="font-weight:bold;vertical-align:top;">is_py2</td><td style="vertical-align:top;">:</td><td><div>True</div></td></tr><tr><td style="font-weight:bold;vertical-align:top;">is_pypy</td><td style="vertical-align:top;">:</td><td><div>False</div></td></tr><tr><td style="font-weight:bold;vertical-align:top;">is_source</td><td style="vertical-align:top;">:</td><td><div>False</div></td></tr><tr><td style="font-weight:bold;vertical-align:top;">local_hosts</td><td style="vertical-align:top;">:</td><td><div><table><tr><td><div>DESKTOP-HTUJN4Q.unica.cu</div></td></tr><tr><td><div>10.18.5.109</div></td></tr><tr><td><div>DESKTOP-HTUJN4Q</div></td></tr><tr><td><div>::ffff:127.0.0.1</div></td></tr><tr><td><div>::1</div></td></tr><tr><td><div>fe80::8548:f993:3c0e:6b30%5</div></td></tr><tr><td><div>127.0.0.1</div></td></tr></table></div></td></tr><tr><td style="font-weight:bold;vertical-align:top;">web2py_version</td><td style="vertical-align:top;">:</td><td><div>2.18.5-stable+timestamp.2019.04.08.04.22.03</div></td></tr></table></div></td></tr><tr><td style="font-weight:bold;vertical-align:top;">is_https</td><td style="vertical-align:top;">:</td><td><div>False</div></td></tr><tr><td style="font-weight:bold;vertical-align:top;">is_local</td><td style="vertical-align:top;">:</td><td><div>True</div></td></tr><tr><td style="font-weight:bold;vertical-align:top;">is_restful</td><td style="vertical-align:top;">:</td><td><div>False</div></td></tr><tr><td style="font-weight:bold;vertical-align:top;">is_scheduler</td><td style="vertical-align:top;">:</td><td><div>False</div></td></tr><tr><td style="font-weight:bold;vertical-align:top;">is_shell</td><td style="vertical-align:top;">:</td><td><div>False</div></td></tr><tr><td style="font-weight:bold;vertical-align:top;">method</td><td style="vertical-align:top;">:</td><td><div>GET</div></td></tr><tr><td style="font-weight:bold;vertical-align:top;">now</td><td style="vertical-align:top;">:</td><td><div>datetime.datetime(2020, 3, 10, 10, 0, 14, 451000)</div></td></tr><tr><td style="font-weight:bold;vertical-align:top;">url</td><td style="vertical-align:top;">:</td><td><div>/Piezas/estadisticas/estadistica_general</div></td></tr><tr><td style="font-weight:bold;vertical-align:top;">utcnow</td><td style="vertical-align:top;">:</td><td><div>datetime.datetime(2020, 3, 10, 14, 0, 14, 451000)</div></td></tr><tr><td style="font-weight:bold;vertical-align:top;">wsgi</td><td style="vertical-align:top;">:</td><td><div>&lt;gluon.main.LazyWSGI object at 0x04191490&gt;</div></td></tr></table></div>'
tRp60
sS'frames'
p61
(lp62
(dp63
S'file'
p64
S'C:\\Users\\Jorgito\\Desktop\\web2py_2.18.5_win\\gluon\\restricted.py'
p65
sS'dump'
p66
(dp67
S'environment'
p68
S"{'A': <class 'gluon.html.A'>, 'ANY_OF': <class 'pydal.validators.ANY_OF'>, 'ASSIGNJS': <function ASSIGNJS>, 'AppConfig': <function AppConfig>, 'Auth': <class 'gluon.tools.Auth'>, 'B': <class 'gluon.html.B'>, 'BEAUTIFY': <class 'gluon.html.BEAUTIFY'>, 'BODY': <class 'gluon.html.BODY'>, 'BR': <class 'gluon.html.BR'>, 'BUTTON': <class 'gluon.html.BUTTON'>, ...}"
p69
sS'ccode'
p70
S'<code object <module> at 041BA728, file "C:\\User...s\\estadisticas/estadistica_general.html", line 1>'
p71
ssS'lnum'
p72
I219
sS'lines'
p73
(dp74
I214
S'    if environment is None:'
p75
sI215
S'        environment = {}'
p76
sI216
S"    environment['__file__'] = layer"
p77
sI217
S"    environment['__name__'] = '__restricted__'"
p78
sI218
S'    try:'
p79
sI219
S'        exec(ccode, environment)'
p80
sI220
S'    except HTTP:'
p81
sI221
S'        raise'
p82
sI222
S'    except RestrictedError:'
p83
sI223
S'        # do not encapsulate (obfuscate) the original RestrictedError'
p84
ssS'call'
p85
S'(ccode=<code object <module> at 041BA728, file "C:\\User...s\\estadisticas/estadistica_general.html", line 1>, environment={\'A\': <class \'gluon.html.A\'>, \'ANY_OF\': <class \'pydal.validators.ANY_OF\'>, \'ASSIGNJS\': <function ASSIGNJS>, \'AppConfig\': <function AppConfig>, \'Auth\': <class \'gluon.tools.Auth\'>, \'B\': <class \'gluon.html.B\'>, \'BEAUTIFY\': <class \'gluon.html.BEAUTIFY\'>, \'BODY\': <class \'gluon.html.BODY\'>, \'BR\': <class \'gluon.html.BR\'>, \'BUTTON\': <class \'gluon.html.BUTTON\'>, ...}, layer=r\'C:\\Users\\Jorgito\\Desktop\\web2py_2.18.5_win\\appli...iezas\\views\\estadisticas/estadistica_general.html\', scode=r"response.write(\'<!DOCTYPE html>\\r\\n<!--[if (gt I...write(\'\\r\\n</body>\\r\\n\\r\\n</html>\', escape=False)")'
p86
sS'func'
p87
S'restricted'
p88
sa(dp89
g64
S'C:\\Users\\Jorgito\\Desktop\\web2py_2.18.5_win\\applications\\Piezas\\views\\estadisticas\\estadistica_general.html'
p90
sg66
(dp91
S'meses'
p92
S'undefined'
p93
sS'index'
p94
g93
sS'drilldown'
p95
g93
ssg72
I118
sg73
(dp96
I128
S'response.write(form)'
p97
sI109
S'response.write(\'\\r\\n            <!-- Start Page Content -->\\r\\n            <div class="row">\\r\\n                <div class="col-12">\\r\\n                \', escape=False)'
p98
sI110
S"response.write(' ', escape=False)"
p99
sI111
S'response.write(\'\\r\\n\\r\\n<div class="card" id="container">\\r\\n    <h3>\', escape=False)'
p100
sI112
S'response.write(T("Estad\xc3\xadstica general"))'
p101
sI113
S'response.write(\'</h3>\\r\\n    <hr style="margin-top: 0%!important;"/>\\r\\n    <div class="card-body">\\r\\n        <div class="row">\\r\\n            <div class="col-md-12">\\r\\n            \', escape=False)'
p102
sI114
S'for m in sorted(marzo):'
p103
sI115
S"    response.write('\\r\\n            ', escape=False)"
p104
sI116
S'    for d in sorted(marzo[m]):'
p105
sI117
S"        response.write('\\r\\n                ', escape=False)"
p106
sI118
S'        response.write(str(d) + ": " + str(m[d]))'
p107
sI119
S"        response.write('\\r\\n            ', escape=False)"
p108
sI120
S'        pass'
p109
sI121
S"    response.write('\\r\\n            ', escape=False)"
p110
sI122
S'    pass'
p111
sI123
S"response.write('\\r\\n                <br>\\r\\n            ', escape=False)"
p112
sI124
S'response.write(marzo)'
p113
sI125
S"response.write('\\r\\n            ', escape=False)"
p114
sI126
S'response.write(test)'
p115
sI127
S'response.write(\'\\r\\n                <h3>Seleccionar a\\xc3\\xb1o</h3>\\r\\n                <br/>\\r\\n                <div class="col-md-5">\\r\\n                \', escape=False)'
p116
ssg85
S'()'
p117
sg87
S'<module>'
p118
sasS'pyver'
p119
S'Python 2.7.9: C:\\Users\\Jorgito\\Desktop\\web2py_2.18.5_win\\web2py.exe (prefix: )'
p120
sS'session'
p121
g59
(S's\x9c\x00\x00\x00<div><table><tr><td style="font-weight:bold;vertical-align:top;">flash</td><td style="vertical-align:top;">:</td><td><div>None</div></td></tr></table></div>'
tRp122
sS'etype'
p123
S"<type 'exceptions.TypeError'>"
p124
sS'date'
p125
S'Tue Mar 10 10:00:14 2020'
p126
sS'response'
p127
g59
(S's>)\x00\x00<div><table><tr><td style="font-weight:bold;vertical-align:top;">body</td><td style="vertical-align:top;">:</td><td><div>&lt;cStringIO.StringO object at 0x08D97300&gt;</div></td></tr><tr><td style="font-weight:bold;vertical-align:top;">cookies</td><td style="vertical-align:top;">:</td><td><div><table><tr><td style="font-weight:bold;vertical-align:top;">session_id_piezas</td><td style="vertical-align:top;">:</td><td><div>127.0.0.1-69d34f41-0912-426e-b4e6-bc576fa048e4<table><tr><td style="font-weight:bold;vertical-align:top;">comment</td><td style="vertical-align:top;">:</td><td><div></div></td></tr><tr><td style="font-weight:bold;vertical-align:top;">domain</td><td style="vertical-align:top;">:</td><td><div></div></td></tr><tr><td style="font-weight:bold;vertical-align:top;">expires</td><td style="vertical-align:top;">:</td><td><div></div></td></tr><tr><td style="font-weight:bold;vertical-align:top;">httponly</td><td style="vertical-align:top;">:</td><td><div></div></td></tr><tr><td style="font-weight:bold;vertical-align:top;">max-age</td><td style="vertical-align:top;">:</td><td><div></div></td></tr><tr><td style="font-weight:bold;vertical-align:top;">path</td><td style="vertical-align:top;">:</td><td><div>/</div></td></tr><tr><td style="font-weight:bold;vertical-align:top;">samesite</td><td style="vertical-align:top;">:</td><td><div></div></td></tr><tr><td style="font-weight:bold;vertical-align:top;">secure</td><td style="vertical-align:top;">:</td><td><div></div></td></tr><tr><td style="font-weight:bold;vertical-align:top;">version</td><td style="vertical-align:top;">:</td><td><div></div></td></tr></table></div></td></tr></table></div></td></tr><tr><td style="font-weight:bold;vertical-align:top;">delimiters</td><td style="vertical-align:top;">:</td><td><div><table><tr><td><div>{{</div></td></tr><tr><td><div>}}</div></td></tr></table></div></td></tr><tr><td style="font-weight:bold;vertical-align:top;">files</td><td style="vertical-align:top;">:</td><td><div><table><tr><td><div>/Piezas/static/js/jquery.js</div></td></tr><tr><td><div>/Piezas/static/css/calendar.css</div></td></tr><tr><td><div>/Piezas/static/js/calendar.js</div></td></tr><tr><td><div>/Piezas/static/js/web2py.js</div></td></tr></table></div></td></tr><tr><td style="font-weight:bold;vertical-align:top;">flash</td><td style="vertical-align:top;">:</td><td><div></div></td></tr><tr><td style="font-weight:bold;vertical-align:top;">form_label_separator</td><td style="vertical-align:top;">:</td><td><div></div></td></tr><tr><td style="font-weight:bold;vertical-align:top;">formstyle</td><td style="vertical-align:top;">:</td><td><div>bootstrap4_inline</div></td></tr><tr><td style="font-weight:bold;vertical-align:top;">generic_patterns</td><td style="vertical-align:top;">:</td><td><div><table><tr><td><div>*</div></td></tr></table></div></td></tr><tr><td style="font-weight:bold;vertical-align:top;">google_analytics_id</td><td style="vertical-align:top;">:</td><td><div>None</div></td></tr><tr><td style="font-weight:bold;vertical-align:top;">headers</td><td style="vertical-align:top;">:</td><td><div><table><tr><td style="font-weight:bold;vertical-align:top;">X-Powered-By</td><td style="vertical-align:top;">:</td><td><div>web2py</div></td></tr></table></div></td></tr><tr><td style="font-weight:bold;vertical-align:top;">menu</td><td style="vertical-align:top;">:</td><td><div><table><tr><td><div><table><tr><td><div>Inicio</div></td></tr><tr><td><div>False</div></td></tr><tr><td><div>/Piezas</div></td></tr><tr><td><div><table></table></div></td></tr></table></div></td></tr><tr><td><div><table><tr><td><div>Piezas</div></td></tr><tr><td><div>False</div></td></tr><tr><td><div>pieza</div></td></tr><tr><td><div><table><tr><td><div><table><tr><td><div>A\xc3\xb1adir pieza</div></td></tr><tr><td><div>False</div></td></tr><tr><td><div>/Piezas/pieza/crear</div></td></tr></table></div></td></tr><tr><td><div><table><tr><td><div>Administrar pieza</div></td></tr><tr><td><div>False</div></td></tr><tr><td><div>/Piezas/pieza/administrar</div></td></tr></table></div></td></tr></table></div></td></tr></table></div></td></tr><tr><td><div><table><tr><td><div>Proveedores</div></td></tr><tr><td><div>False</div></td></tr><tr><td><div>proveedor</div></td></tr><tr><td><div><table><tr><td><div><table><tr><td><div>A\xc3\xb1adir proveedor</div></td></tr><tr><td><div>False</div></td></tr><tr><td><div>/Piezas/proveedor/crear</div></td></tr></table></div></td></tr><tr><td><div><table><tr><td><div>Administrar proveedor</div></td></tr><tr><td><div>False</div></td></tr><tr><td><div>/Piezas/proveedor/administrar</div></td></tr></table></div></td></tr></table></div></td></tr></table></div></td></tr><tr><td><div><table><tr><td><div>Ventas</div></td></tr><tr><td><div>False</div></td></tr><tr><td><div>venta</div></td></tr><tr><td><div><table><tr><td><div><table><tr><td><div>Realizar venta</div></td></tr><tr><td><div>False</div></td></tr><tr><td><div>/Piezas/venta/seleccionar_pieza</div></td></tr></table></div></td></tr><tr><td><div><table><tr><td><div>Administrar ventas</div></td></tr><tr><td><div>False</div></td></tr><tr><td><div>/Piezas/venta/administrar</div></td></tr></table></div></td></tr></table></div></td></tr></table></div></td></tr><tr><td><div><table><tr><td><div>Estad\xc3\xadsticas</div></td></tr><tr><td><div>False</div></td></tr><tr><td><div>estadisticas</div></td></tr><tr><td><div><table><tr><td><div><table><tr><td><div>Por Pieza</div></td></tr><tr><td><div>False</div></td></tr><tr><td><div>/Piezas/estadisticas/piezas</div></td></tr></table></div></td></tr><tr><td><div><table><tr><td><div>General</div></td></tr><tr><td><div>False</div></td></tr><tr><td><div>/Piezas/estadisticas/estadistica_general</div></td></tr></table></div></td></tr></table></div></td></tr></table></div></td></tr><tr><td><div><table><tr><td><div>Base de datos</div></td></tr><tr><td><div>False</div></td></tr><tr><td><div>base_datos</div></td></tr><tr><td><div><table><tr><td><div><table><tr><td><div>Salvar base de datos</div></td></tr><tr><td><div>False</div></td></tr><tr><td><div>/Piezas/base_datos/salvar</div></td></tr></table></div></td></tr><tr><td><div><table><tr><td><div>Cargar salva</div></td></tr><tr><td><div>False</div></td></tr><tr><td><div>/Piezas/base_datos/cargar</div></td></tr></table></div></td></tr></table></div></td></tr></table></div></td></tr><tr><td><div><table><tr><td><div>Eliminar todo</div></td></tr><tr><td><div>False</div></td></tr><tr><td><div>/Piezas/base_datos/eliminar</div></td></tr></table></div></td></tr></table></div></td></tr><tr><td style="font-weight:bold;vertical-align:top;">meta</td><td style="vertical-align:top;">:</td><td><div><table><tr><td style="font-weight:bold;vertical-align:top;">author</td><td style="vertical-align:top;">:</td><td><div>Your Name &lt;you@example.com&gt;</div></td></tr><tr><td style="font-weight:bold;vertical-align:top;">description</td><td style="vertical-align:top;">:</td><td><div>a cool new app</div></td></tr><tr><td style="font-weight:bold;vertical-align:top;">generator</td><td style="vertical-align:top;">:</td><td><div>Web2py Web Framework</div></td></tr><tr><td style="font-weight:bold;vertical-align:top;">keywords</td><td style="vertical-align:top;">:</td><td><div><table><tr><td><div>web2py</div></td></tr><tr><td><div>python</div></td></tr><tr><td><div>framework</div></td></tr></table></div></td></tr></table></div></td></tr><tr><td style="font-weight:bold;vertical-align:top;">models_to_run</td><td style="vertical-align:top;">:</td><td><div><table><tr><td><div>^\\w+\\.py$</div></td></tr><tr><td><div>^estadisticas/\\w+\\.py$</div></td></tr><tr><td><div>^estadisticas/estadistica_general/\\w+\\.py$</div></td></tr></table></div></td></tr><tr><td style="font-weight:bold;vertical-align:top;">postprocessing</td><td style="vertical-align:top;">:</td><td><div><table></table></div></td></tr><tr><td style="font-weight:bold;vertical-align:top;">session_client</td><td style="vertical-align:top;">:</td><td><div>127.0.0.1</div></td></tr><tr><td style="font-weight:bold;vertical-align:top;">session_cookie_compression_level</td><td style="vertical-align:top;">:</td><td><div>None</div></td></tr><tr><td style="font-weight:bold;vertical-align:top;">session_cookie_expires</td><td style="vertical-align:top;">:</td><td><div>None</div></td></tr><tr><td style="font-weight:bold;vertical-align:top;">session_data_name</td><td style="vertical-align:top;">:</td><td><div>session_data_piezas</div></td></tr><tr><td style="font-weight:bold;vertical-align:top;">session_file</td><td style="vertical-align:top;">:</td><td><div>&lt;open file &#x27;C:\\\\Users\\\\Jorgito\\\\Desktop\\\\web2py_2.18.5_win\\\\applications\\\\Piezas\\\\sessions\\\\040\\\\0f5\\\\127.0.0.1-69d34f41-0912-426e-b4e6-bc576fa048e4&#x27;, mode &#x27;rb+&#x27; at 0x03F01860&gt;</div></td></tr><tr><td style="font-weight:bold;vertical-align:top;">session_filename</td><td style="vertical-align:top;">:</td><td><div>C:\\Users\\Jorgito\\Desktop\\web2py_2.18.5_win\\applications\\Piezas\\sessions\\127.0.0.1-69d34f41-0912-426e-b4e6-bc576fa048e4</div></td></tr><tr><td style="font-weight:bold;vertical-align:top;">session_hash</td><td style="vertical-align:top;">:</td><td><div>202db912635b83d5d849a8fec23dbf8e</div></td></tr><tr><td style="font-weight:bold;vertical-align:top;">session_id</td><td style="vertical-align:top;">:</td><td><div>127.0.0.1-69d34f41-0912-426e-b4e6-bc576fa048e4</div></td></tr><tr><td style="font-weight:bold;vertical-align:top;">session_id_name</td><td style="vertical-align:top;">:</td><td><div>session_id_piezas</div></td></tr><tr><td style="font-weight:bold;vertical-align:top;">session_locked</td><td style="vertical-align:top;">:</td><td><div>True</div></td></tr><tr><td style="font-weight:bold;vertical-align:top;">session_masterapp</td><td style="vertical-align:top;">:</td><td><div>Piezas</div></td></tr><tr><td style="font-weight:bold;vertical-align:top;">session_new</td><td style="vertical-align:top;">:</td><td><div>False</div></td></tr><tr><td style="font-weight:bold;vertical-align:top;">session_storage_type</td><td style="vertical-align:top;">:</td><td><div>file</div></td></tr><tr><td style="font-weight:bold;vertical-align:top;">show_toolbar</td><td style="vertical-align:top;">:</td><td><div>False</div></td></tr><tr><td style="font-weight:bold;vertical-align:top;">status</td><td style="vertical-align:top;">:</td><td><div>200</div></td></tr><tr><td style="font-weight:bold;vertical-align:top;">view</td><td style="vertical-align:top;">:</td><td><div>estadisticas/estadistica_general.html</div></td></tr></table></div>'
tRp128
sS'locals'
p129
(dp130
S'valores_entradas'
p131
S'[0, 0, 23L, 4L, 0, 0, 0, 0, 0, 0, 0, 0]'
p132
sS'PY2'
p133
S'True'
p134
sS'OBJECT'
p135
S"<class 'gluon.html.OBJECT'>"
p136
sS'SQLDB'
p137
S"<class 'pydal.base.DAL'>"
p138
sg121
S"<Storage {'_formkey[default]': ['6465473f-548d-4...errer_web2py_grid': '/Piezas/pieza/administrar'}>"
p139
sS'LINK'
p140
S"<class 'gluon.html.LINK'>"
p141
sS'BR'
p142
S"<class 'gluon.html.BR'>"
p143
sS'local_import'
p144
S'<function <lambda>>'
p145
sS'OPTGROUP'
p146
S"<class 'gluon.html.OPTGROUP'>"
p147
sS'__package__'
p148
S'None'
p149
sS'PRE'
p150
S"<class 'gluon.html.PRE'>"
p151
sS'IS_INT_IN_RANGE'
p152
S"<class 'pydal.validators.IS_INT_IN_RANGE'>"
p153
sS'to_bytes'
p154
S'<function to_bytes>'
p155
sS'IS_LOWER'
p156
S"<class 'pydal.validators.IS_LOWER'>"
p157
sS'IS_STRONG'
p158
S"<class 'pydal.validators.IS_STRONG'>"
p159
sS'cache'
p160
S'<gluon.cache.Cache object>'
p161
sS'IS_IN_DB'
p162
S"<class 'pydal.validators.IS_IN_DB'>"
p163
sS'TAG'
p164
S'<gluon.html.__TAG__ object>'
p165
sS'SQLField'
p166
S"<class 'pydal.objects.Field'>"
p167
sS'mail'
p168
S'<gluon.tools.Mail object>'
p169
sS'BODY'
p170
S"<class 'gluon.html.BODY'>"
p171
sS'IS_DATE_IN_RANGE'
p172
S"<class 'pydal.validators.IS_DATE_IN_RANGE'>"
p173
sS'marzo'
p174
S'{1: {}, 2: {}, 3: {6: 3L, 9: 4L, 10: 2L, 14: 7L, 25: 7L}, 4: {2: 1L, 9: 3L}, 5: {}, 6: {}, 7: {}, 8: {}, 9: {}, 10: {}, ...}'
p175
sS'IFRAME'
p176
S"<class 'gluon.html.IFRAME'>"
p177
sS'URL'
p178
S'<function URL>'
p179
sS'__file__'
p180
S"r'C:\\Users\\Jorgito\\Desktop\\web2py_2.18.5_win\\appli...iezas\\views\\estadisticas/estadistica_general.html'"
p181
sS'db'
p182
S'<DAL uri="sqlite://storage.sqlite">'
p183
sS'auth'
p184
S'<gluon.tools.Auth object>'
p185
sS'P'
S"<class 'gluon.html.P'>"
p186
sS'TFOOT'
p187
S"<class 'gluon.html.TFOOT'>"
p188
sS'iteritems'
p189
S'<function <lambda>>'
p190
sS'XHTML'
p191
S"<class 'gluon.html.XHTML'>"
p192
sS'ON'
p193
g134
sS'OL'
p194
S"<class 'gluon.html.OL'>"
p195
sS'd'
S'6'
sS'TEXTAREA'
p196
S"<class 'gluon.html.TEXTAREA'>"
p197
sS'MENU'
p198
S"<class 'gluon.html.MENU'>"
p199
sS'IS_SLUG'
p200
S"<class 'pydal.validators.IS_SLUG'>"
p201
sS'IS_IMAGE'
p202
S"<class 'pydal.validators.IS_IMAGE'>"
p203
sS'EM'
p204
S"<class 'gluon.html.EM'>"
p205
sS'CODE'
p206
S"<class 'gluon.html.CODE'>"
p207
sS'HTTP'
p208
S"<class 'gluon.http.HTTP'>"
p209
sS'HR'
p210
S"<class 'gluon.html.HR'>"
p211
sS'IS_DATETIME'
p212
S"<class 'pydal.validators.IS_DATETIME'>"
p213
sS'reduce'
p214
S'<built-in function reduce>'
p215
sS'STYLE'
p216
S"<class 'gluon.html.STYLE'>"
p217
sS'LABEL'
p218
S"<class 'gluon.html.LABEL'>"
p219
sS'CLEANUP'
p220
S"<class 'pydal.validators.CLEANUP'>"
p221
sS'year'
p222
S'2020'
p223
sS'SELECT'
p224
S"<class 'gluon.html.SELECT'>"
p225
sS'CENTER'
p226
S"<class 'gluon.html.CENTER'>"
p227
sS'Auth'
p228
S"<class 'gluon.tools.Auth'>"
p229
sS'__builtins__'
p230
S"{'ArithmeticError': <type 'exceptions.ArithmeticError'>, 'AssertionError': <type 'exceptions.AssertionError'>, 'AttributeError': <type 'exceptions.AttributeError'>, 'BaseException': <type 'exceptions.BaseException'>, 'BufferError': <type 'exceptions.BufferError'>, 'BytesWarning': <type 'exceptions.BytesWarning'>, 'DeprecationWarning': <type 'exceptions.DeprecationWarning'>, 'EOFError': <type 'exceptions.EOFError'>, 'Ellipsis': Ellipsis, 'EnvironmentError': <type 'exceptions.EnvironmentError'>, ...}"
p231
sS'HTML'
p232
S"<class 'gluon.html.HTML'>"
p233
sS'SQLFORM'
p234
S"<class 'gluon.sqlhtml.SQLFORM'>"
p235
sS'_item'
p236
S"(<lazyT 'Eliminar todo'>, False, '/Piezas/base_datos/eliminar')"
p237
sS'LOAD'
p238
S'<function LOAD>'
p239
sS'redirect'
p240
S'<function redirect>'
p241
sS'FIELDSET'
p242
S"<class 'gluon.html.FIELDSET'>"
p243
sS'IS_EQUAL_TO'
p244
S"<class 'pydal.validators.IS_EQUAL_TO'>"
p245
sS'embed64'
p246
S'<function embed64>'
p247
sS'IS_LIST_OF'
p248
S"<class 'pydal.validators.IS_LIST_OF'>"
p249
sS'INPUT'
p250
S"<class 'gluon.html.INPUT'>"
p251
sS'EMBED'
p252
S"<class 'gluon.html.EMBED'>"
p253
sS'configuration'
p254
S"{'host': {'names': 'localhost:*, 127.0.0.1:*, *:...': 'sqlite://storage.sqlite', 'pool_size': '10'}}"
p255
sS'H2'
p256
S"<class 'gluon.html.H2'>"
p257
sS'H3'
p258
S"<class 'gluon.html.H3'>"
p259
sS'AppConfig'
p260
S'<function AppConfig>'
p261
sS'H1'
p262
S"<class 'gluon.html.H1'>"
p263
sS'H6'
p264
S"<class 'gluon.html.H6'>"
p265
sS'H4'
p266
S"<class 'gluon.html.H4'>"
p267
sS'H5'
p268
S"<class 'gluon.html.H5'>"
p269
sS'UL'
p270
S"<class 'gluon.html.UL'>"
p271
sS'IS_UPPER'
p272
S"<class 'pydal.validators.IS_UPPER'>"
p273
sS'xmlescape'
p274
S'<function xmlescape>'
p275
sS'IS_TIME'
p276
S"<class 'pydal.validators.IS_TIME'>"
p277
sS'OPTION'
p278
S"<class 'gluon.html.OPTION'>"
p279
sS'TITLE'
p280
S"<class 'gluon.html.TITLE'>"
p281
sS'CRYPT'
p282
S"<class 'pydal.validators.CRYPT'>"
p283
sS'IS_EMPTY_OR'
p284
S"<class 'pydal.validators.IS_EMPTY_OR'>"
p285
sS'MARKMIN'
p286
S"<class 'gluon.html.MARKMIN'>"
p287
sS'__name__'
p288
S"'__restricted__'"
p289
sS'STRONG'
p290
S"<class 'gluon.html.STRONG'>"
p291
sS'COL'
p292
S"<class 'gluon.html.COL'>"
p293
sS'SCRIPT'
p294
S"<class 'gluon.html.SCRIPT'>"
p295
sS'valores_ventas'
p296
S'[0, 0, 3L, 6L, 2L, 0, 0, 0, 0, 0, 0, 0]'
p297
sS'_subitem'
p298
S"(<lazyT 'Cargar salva'>, False, '/Piezas/base_datos/cargar')"
p299
sS'TABLE'
p300
S"<class 'gluon.html.TABLE'>"
p301
sS'icon'
p302
S"{'Base de datos': 'fa-database', 'Eliminar todo': 'fa-trash', 'Estad\\xc3\\xadsticas': 'fa-signal', 'Inicio': 'fa-home', 'Piezas': 'fa-desktop', 'Proveedores': 'fa-user', 'Usuario': 'fa-user-circle', 'Ventas': 'fa-money'}"
p303
sS'IS_IPV4'
p304
S"<class 'pydal.validators.IS_IPV4'>"
p305
sS'IS_LENGTH'
p306
S"<class 'pydal.validators.IS_LENGTH'>"
p307
sS'IS_IPV6'
p308
S"<class 'pydal.validators.IS_IPV6'>"
p309
sS'XML'
p310
S"<class 'gluon.html.XML'>"
p311
sS'B'
S"<class 'gluon.html.B'>"
p312
sS'IMG'
p313
S"<class 'gluon.html.IMG'>"
p314
sS'SQLTABLE'
p315
S"<class 'gluon.sqlhtml.SQLTABLE'>"
p316
sS'IS_MATCH'
p317
S"<class 'pydal.validators.IS_MATCH'>"
p318
sS'IS_ALPHANUMERIC'
p319
S"<class 'pydal.validators.IS_ALPHANUMERIC'>"
p320
sS'__author__'
p321
S"'Jorgito'"
p322
sS'_app'
p323
S"'Piezas'"
p324
sS'__format_fecha'
p325
S'<function __format_fecha>'
p326
sS'SPAN'
p327
S"<class 'gluon.html.SPAN'>"
p328
sS'IS_JSON'
p329
S"<class 'pydal.validators.IS_JSON'>"
p330
sS'IS_IPADDRESS'
p331
S"<class 'pydal.validators.IS_IPADDRESS'>"
p332
sS'config_general'
p333
S"{'create': False, 'csv': False, 'deletable': False, 'details': False, 'editable': False, 'maxtextlength': 100, 'paginate': False, 'searchable': False, 'sortable': False, 'user_signature': False}"
p334
sS'BEAUTIFY'
p335
S"<class 'gluon.html.BEAUTIFY'>"
p336
sS'META'
p337
S"<class 'gluon.html.META'>"
p338
sS'BUTTON'
p339
S"<class 'gluon.html.BUTTON'>"
p340
sS'IS_DATE'
p341
S"<class 'pydal.validators.IS_DATE'>"
p342
sS'IS_EMAIL'
p343
S"<class 'pydal.validators.IS_EMAIL'>"
p344
sS'IS_NOT_EMPTY'
p345
S"<class 'pydal.validators.IS_NOT_EMPTY'>"
p346
sS'xrange'
p347
S"<type 'xrange'>"
p348
sS'TBODY'
p349
S"<class 'gluon.html.TBODY'>"
p350
sS'CAT'
p351
S"<class 'gluon.html.CAT'>"
p352
sS'Field'
p353
S"<class 'pydal.objects.Field'>"
p354
sS'IS_LIST_OF_EMAILS'
p355
S"<class 'pydal.validators.IS_LIST_OF_EMAILS'>"
p356
sg58
S"<Storage {'_vars': None, 'function': 'estadistic...8.5_win\\\\applications\\\\Piezas', 'method': 'GET'}>"
p357
sS'DIV'
p358
S"<class 'gluon.html.DIV'>"
p359
sS'LEGEND'
p360
S"<class 'gluon.html.LEGEND'>"
p361
sS'form'
p362
S'<gluon.html.FORM object>'
p363
sS'to_native'
p364
S'<function to_native>'
p365
sS'COLGROUP'
p366
S"<class 'gluon.html.COLGROUP'>"
p367
sS'DAL'
p368
S"<class 'pydal.base.DAL'>"
p369
sS'ASSIGNJS'
p370
S'<function ASSIGNJS>'
p371
sS'TR'
p372
S"<class 'gluon.html.TR'>"
p373
sS'LI'
p374
S"<class 'gluon.html.LI'>"
p375
sS'date_widget'
p376
S'<function date_widget>'
p377
sS'TH'
p378
S"<class 'gluon.html.TH'>"
p379
sS'test'
p380
S'<Rows (8)>'
p381
sS'TD'
p382
S"<class 'gluon.html.TD'>"
p383
sS'IS_URL'
p384
S"<class 'pydal.validators.IS_URL'>"
p385
sS'A'
S"<class 'gluon.html.A'>"
p386
sS'HEAD'
p387
S"<class 'gluon.html.HEAD'>"
p388
sS'IS_DATETIME_IN_RANGE'
p389
S"<class 'pydal.validators.IS_DATETIME_IN_RANGE'>"
p390
sS'FORM'
p391
S"<class 'gluon.html.FORM'>"
p392
sS'I'
S"<class 'gluon.html.I'>"
p393
sS'm'
S'3'
sS'IS_NOT_IN_DB'
p394
S"<class 'pydal.validators.IS_NOT_IN_DB'>"
p395
sS'IS_FILE'
p396
S"<class 'pydal.validators.IS_FILE'>"
p397
sg127
S"<Storage {'body': <cStringIO.StringO object at 0...'view': 'estadisticas/estadistica_general.html'}>"
p398
sS'THEAD'
p399
S"<class 'gluon.html.THEAD'>"
p400
sS'ANY_OF'
p401
S"<class 'pydal.validators.ANY_OF'>"
p402
sS'IS_NULL_OR'
p403
S"<class 'pydal.validators.IS_EMPTY_OR'>"
p404
sS'IS_FLOAT_IN_RANGE'
p405
S"<class 'pydal.validators.IS_FLOAT_IN_RANGE'>"
p406
sS'IS_EXPR'
p407
S"<class 'pydal.validators.IS_EXPR'>"
p408
sS'T'
S'<gluon.languages.TranslatorFactory object>'
p409
sS'IS_IN_SET'
p410
S"<class 'pydal.validators.IS_IN_SET'>"
p411
sS'IS_UPLOAD_FILENAME'
p412
S"<class 'pydal.validators.IS_UPLOAD_FILENAME'>"
p413
sS'TT'
p414
S"<class 'gluon.html.TT'>"
p415
sS'IS_DECIMAL_IN_RANGE'
p416
S"<class 'pydal.validators.IS_DECIMAL_IN_RANGE'>"
p417
sssS'traceback'
p418
S'Traceback (most recent call last):\n  File "C:\\Users\\Jorgito\\Desktop\\web2py_2.18.5_win\\gluon\\restricted.py", line 219, in restricted\n    exec(ccode, environment)\n  File "C:\\Users\\Jorgito\\Desktop\\web2py_2.18.5_win\\applications\\Piezas\\views\\estadisticas/estadistica_general.html", line 118, in <module>\n    drilldown: meses[index] + "Ventas"\nTypeError: \'int\' object has no attribute \'__getitem__\'\n'
p419
s.